

Microchip MPLAB XC8 Assembler V2.50 build 20240725155939 
                                                                                               Thu Nov 14 11:24:37 2024

Microchip MPLAB XC8 C Compiler v2.50 (Free license) build 20240725155939 Og1 
     1                           	processor	16F877A
     2                           	pagewidth 120
     3                           	opt	flic
     4                           	psect	idataBANK1,global,class=CODE,space=0,delta=2,noexec
     5                           	psect	nvBANK1,global,class=BANK1,space=1,delta=1,noexec
     6                           	psect	cinit,global,class=CODE,space=0,merge=1,delta=2
     7                           	psect	dataBANK1,global,class=BANK1,space=1,delta=1,noexec
     8                           	psect	cstackBANK1,global,class=BANK1,space=1,delta=1,noexec
     9                           	psect	cstackCOMMON,global,class=COMMON,space=1,delta=1,noexec
    10                           	psect	cstackBANK0,global,class=BANK0,space=1,delta=1,noexec
    11                           	psect	maintext,global,class=CODE,space=0,split=1,delta=2
    12                           	psect	text1,local,class=CODE,space=0,merge=1,delta=2
    13                           	psect	text2,local,class=CODE,space=0,merge=1,delta=2,group=1
    14                           	psect	text3,local,class=CODE,space=0,merge=1,delta=2,group=1
    15                           	psect	text4,local,class=CODE,space=0,merge=1,delta=2
    16                           	psect	text5,local,class=CODE,space=0,merge=1,delta=2,group=1
    17                           	psect	text6,local,class=CODE,space=0,merge=1,delta=2,group=1
    18                           	psect	text7,local,class=CODE,space=0,merge=1,delta=2,group=1
    19                           	psect	text8,local,class=CODE,space=0,merge=1,delta=2,group=1
    20                           	psect	text9,local,class=CODE,space=0,merge=1,delta=2,group=1
    21                           	psect	config,global,abs,ovrld,class=CONFIG,space=4,delta=2,noexec
    22                           	dabs	1,0x7E,2
    23     0000                     
    24                           ; Generated 12/10/2023 GMT
    25                           ; 
    26                           ; Copyright © 2023, Microchip Technology Inc. and its subsidiaries ("Microchip")
    27                           ; All rights reserved.
    28                           ; 
    29                           ; This software is developed by Microchip Technology Inc. and its subsidiaries ("Microch
      +                          ip").
    30                           ; 
    31                           ; Redistribution and use in source and binary forms, with or without modification, are
    32                           ; permitted provided that the following conditions are met:
    33                           ; 
    34                           ;     1. Redistributions of source code must retain the above copyright notice, this lis
      +                          t of
    35                           ;        conditions and the following disclaimer.
    36                           ; 
    37                           ;     2. Redistributions in binary form must reproduce the above copyright notice, this 
      +                          list
    38                           ;        of conditions and the following disclaimer in the documentation and/or other
    39                           ;        materials provided with the distribution. Publication is not required when
    40                           ;        this file is used in an embedded application.
    41                           ; 
    42                           ;     3. Microchip's name may not be used to endorse or promote products derived from th
      +                          is
    43                           ;        software without specific prior written permission.
    44                           ; 
    45                           ; THIS SOFTWARE IS PROVIDED BY MICROCHIP "AS IS" AND ANY EXPRESS OR IMPLIED WARRANTIES,
    46                           ; INCLUDING, BUT NOT LIMITED TO, THE IMPLIED WARRANTIES OF MERCHANTABILITY AND FITNESS F
      +                          OR
    47                           ; PURPOSE ARE DISCLAIMED.  IN NO EVENT SHALL MICROCHIP BE LIABLE FOR ANY DIRECT, INDIREC
      +                          T,
    48                           ; INCIDENTAL, SPECIAL, EXEMPLARY, OR CONSEQUENTIAL DAMAGES (INCLUDING BUT NOT LIMITED TO
    49                           ; PROCUREMENT OF SUBSTITUTE GOODS OR SERVICES; LOSS OF USE, DATA OR PROFITS; OR BUSINESS
    50                           ; INTERRUPTION) HOWSOEVER CAUSED AND ON ANY THEORY OF LIABILITY, WHETHER IN CONTRACT, ST
      +                          RICT
    51                           ; LIABILITY, OR TORT (INCLUDING NEGLIGENCE OR OTHERWISE) ARISING IN ANY WAY OUT OF THE U
      +                          SE OF
    52                           ; THIS SOFTWARE, EVEN IF ADVISED OF THE POSSIBILITY OF SUCH DAMAGE.
    53                           ; 
    54                           ; 
    55                           ; Code-generator required, PIC16F877A Definitions
    56                           ; 
    57                           ; SFR Addresses
    58     0004                     fsr             equ	4
    59     0004                     fsr0            equ	4
    60     0000                     indf            equ	0
    61     0000                     indf0           equ	0
    62     0002                     pc              equ	2
    63     0002                     pcl             equ	2
    64     000A                     pclath          equ	10
    65     0003                     status          equ	3
    66     0000                     INDF            equ	0	;# 
    67     0001                     TMR0            equ	1	;# 
    68     0002                     PCL             equ	2	;# 
    69     0003                     STATUS          equ	3	;# 
    70     0004                     FSR             equ	4	;# 
    71     0005                     PORTA           equ	5	;# 
    72     0006                     PORTB           equ	6	;# 
    73     0007                     PORTC           equ	7	;# 
    74     0008                     PORTD           equ	8	;# 
    75     0009                     PORTE           equ	9	;# 
    76     000A                     PCLATH          equ	10	;# 
    77     000B                     INTCON          equ	11	;# 
    78     000C                     PIR1            equ	12	;# 
    79     000D                     PIR2            equ	13	;# 
    80     000E                     TMR1            equ	14	;# 
    81     000E                     TMR1L           equ	14	;# 
    82     000F                     TMR1H           equ	15	;# 
    83     0010                     T1CON           equ	16	;# 
    84     0011                     TMR2            equ	17	;# 
    85     0012                     T2CON           equ	18	;# 
    86     0013                     SSPBUF          equ	19	;# 
    87     0014                     SSPCON          equ	20	;# 
    88     0015                     CCPR1           equ	21	;# 
    89     0015                     CCPR1L          equ	21	;# 
    90     0016                     CCPR1H          equ	22	;# 
    91     0017                     CCP1CON         equ	23	;# 
    92     0018                     RCSTA           equ	24	;# 
    93     0019                     TXREG           equ	25	;# 
    94     001A                     RCREG           equ	26	;# 
    95     001B                     CCPR2           equ	27	;# 
    96     001B                     CCPR2L          equ	27	;# 
    97     001C                     CCPR2H          equ	28	;# 
    98     001D                     CCP2CON         equ	29	;# 
    99     001E                     ADRESH          equ	30	;# 
   100     001F                     ADCON0          equ	31	;# 
   101     0081                     OPTION_REG      equ	129	;# 
   102     0085                     TRISA           equ	133	;# 
   103     0086                     TRISB           equ	134	;# 
   104     0087                     TRISC           equ	135	;# 
   105     0088                     TRISD           equ	136	;# 
   106     0089                     TRISE           equ	137	;# 
   107     008C                     PIE1            equ	140	;# 
   108     008D                     PIE2            equ	141	;# 
   109     008E                     PCON            equ	142	;# 
   110     0091                     SSPCON2         equ	145	;# 
   111     0092                     PR2             equ	146	;# 
   112     0093                     SSPADD          equ	147	;# 
   113     0094                     SSPSTAT         equ	148	;# 
   114     0098                     TXSTA           equ	152	;# 
   115     0099                     SPBRG           equ	153	;# 
   116     009C                     CMCON           equ	156	;# 
   117     009D                     CVRCON          equ	157	;# 
   118     009E                     ADRESL          equ	158	;# 
   119     009F                     ADCON1          equ	159	;# 
   120     010C                     EEDATA          equ	268	;# 
   121     010D                     EEADR           equ	269	;# 
   122     010E                     EEDATH          equ	270	;# 
   123     010F                     EEADRH          equ	271	;# 
   124     018C                     EECON1          equ	396	;# 
   125     018D                     EECON2          equ	397	;# 
   126     0000                     INDF            equ	0	;# 
   127     0001                     TMR0            equ	1	;# 
   128     0002                     PCL             equ	2	;# 
   129     0003                     STATUS          equ	3	;# 
   130     0004                     FSR             equ	4	;# 
   131     0005                     PORTA           equ	5	;# 
   132     0006                     PORTB           equ	6	;# 
   133     0007                     PORTC           equ	7	;# 
   134     0008                     PORTD           equ	8	;# 
   135     0009                     PORTE           equ	9	;# 
   136     000A                     PCLATH          equ	10	;# 
   137     000B                     INTCON          equ	11	;# 
   138     000C                     PIR1            equ	12	;# 
   139     000D                     PIR2            equ	13	;# 
   140     000E                     TMR1            equ	14	;# 
   141     000E                     TMR1L           equ	14	;# 
   142     000F                     TMR1H           equ	15	;# 
   143     0010                     T1CON           equ	16	;# 
   144     0011                     TMR2            equ	17	;# 
   145     0012                     T2CON           equ	18	;# 
   146     0013                     SSPBUF          equ	19	;# 
   147     0014                     SSPCON          equ	20	;# 
   148     0015                     CCPR1           equ	21	;# 
   149     0015                     CCPR1L          equ	21	;# 
   150     0016                     CCPR1H          equ	22	;# 
   151     0017                     CCP1CON         equ	23	;# 
   152     0018                     RCSTA           equ	24	;# 
   153     0019                     TXREG           equ	25	;# 
   154     001A                     RCREG           equ	26	;# 
   155     001B                     CCPR2           equ	27	;# 
   156     001B                     CCPR2L          equ	27	;# 
   157     001C                     CCPR2H          equ	28	;# 
   158     001D                     CCP2CON         equ	29	;# 
   159     001E                     ADRESH          equ	30	;# 
   160     001F                     ADCON0          equ	31	;# 
   161     0081                     OPTION_REG      equ	129	;# 
   162     0085                     TRISA           equ	133	;# 
   163     0086                     TRISB           equ	134	;# 
   164     0087                     TRISC           equ	135	;# 
   165     0088                     TRISD           equ	136	;# 
   166     0089                     TRISE           equ	137	;# 
   167     008C                     PIE1            equ	140	;# 
   168     008D                     PIE2            equ	141	;# 
   169     008E                     PCON            equ	142	;# 
   170     0091                     SSPCON2         equ	145	;# 
   171     0092                     PR2             equ	146	;# 
   172     0093                     SSPADD          equ	147	;# 
   173     0094                     SSPSTAT         equ	148	;# 
   174     0098                     TXSTA           equ	152	;# 
   175     0099                     SPBRG           equ	153	;# 
   176     009C                     CMCON           equ	156	;# 
   177     009D                     CVRCON          equ	157	;# 
   178     009E                     ADRESL          equ	158	;# 
   179     009F                     ADCON1          equ	159	;# 
   180     010C                     EEDATA          equ	268	;# 
   181     010D                     EEADR           equ	269	;# 
   182     010E                     EEDATH          equ	270	;# 
   183     010F                     EEADRH          equ	271	;# 
   184     018C                     EECON1          equ	396	;# 
   185     018D                     EECON2          equ	397	;# 
   186                           
   187                           	psect	idataBANK1
   188     0015                     __pidataBANK1:
   189                           
   190                           ;initializer for _PRESCALE_VAL
   191     0015  3410               	retlw	16
   192                           
   193                           	psect	nvBANK1
   194     00BB                     __pnvBANK1:
   195     00BB                     _PWM_PERIOD:
   196     00BB                     	ds	4
   197     00BF                     _PWM_FREQ:
   198     00BF                     	ds	4
   199     0015                     _CCPR1L         set	21
   200     0017                     _CCP1CONbits    set	23
   201     0012                     _T2CONbits      set	18
   202     0092                     _TMR2ON         set	146
   203     0092                     _PR2            set	146
   204     043A                     _TRISC2         set	1082
   205                           
   206                           	psect	cinit
   207     07F4                     start_initialization:	
   208                           ; #config settings
   209                           
   210     07F4                     __initialization:
   211                           
   212                           ; Initialize objects allocated to BANK1
   213     07F4  1683               	bsf	3,5	;RP0=1, select bank1
   214     07F5  1303               	bcf	3,6	;RP1=0, select bank1
   215     07F6  120A  118A  2015  120A  118A  	fcall	__pidataBANK1	;fetch initializer
   216     07FB  00C3               	movwf	__pdataBANK1& (0+127)
   217     07FC                     end_of_initialization:	
   218                           ;End of C runtime variable initialization code
   219                           
   220     07FC                     __end_of__initialization:
   221     07FC  0183               	clrf	3
   222     07FD  120A  158A  2C45   	ljmp	_main	;jump to C main() function
   223                           
   224                           	psect	dataBANK1
   225     00C3                     __pdataBANK1:
   226     00C3                     _PRESCALE_VAL:
   227     00C3                     	ds	1
   228                           
   229                           	psect	cstackBANK1
   230     00A0                     __pcstackBANK1:
   231     00A0                     ??___fladd:
   232                           
   233                           ; 1 bytes @ 0x0
   234     00A0                     	ds	8
   235     00A8                     ?___fltol:
   236     00A8                     ___fltol@f1:	
   237                           ; 4 bytes @ 0x8
   238                           
   239                           
   240                           ; 4 bytes @ 0x8
   241     00A8                     	ds	4
   242     00AC                     ??___fltol:
   243                           
   244                           ; 1 bytes @ 0xC
   245     00AC                     	ds	4
   246     00B0                     ?_PWM_SetFreq:
   247     00B0                     PWM_SetFreq@f_hz:	
   248                           ; 1 bytes @ 0x10
   249                           
   250     00B0                     ??_PWM_SetDutyCycles:	
   251                           ; 4 bytes @ 0x10
   252                           
   253                           
   254                           ; 1 bytes @ 0x10
   255     00B0                     	ds	4
   256     00B4                     PWM_SetFreq@PR2_value:
   257     00B4                     PWM_SetDutyCycles@duty_period:	
   258                           ; 2 bytes @ 0x14
   259                           
   260                           
   261                           ; 4 bytes @ 0x14
   262     00B4                     	ds	4
   263     00B8                     PWM_SetDutyCycles@duty:
   264                           
   265                           ; 1 bytes @ 0x18
   266     00B8                     	ds	1
   267     00B9                     PWM_SetDutyCycles@tempreg:
   268                           
   269                           ; 2 bytes @ 0x19
   270     00B9                     	ds	2
   271                           
   272                           	psect	cstackCOMMON
   273     0070                     __pcstackCOMMON:
   274     0070                     ?_PWM_SetDutyCycles:
   275     0070                     ?_main:	
   276                           ; 1 bytes @ 0x0
   277                           
   278     0070                     ?__Umul8_16:	
   279                           ; 1 bytes @ 0x0
   280                           
   281     0070                     ?___lldiv:	
   282                           ; 2 bytes @ 0x0
   283                           
   284     0070                     __Umul8_16@multiplicand:	
   285                           ; 4 bytes @ 0x0
   286                           
   287     0070                     ___lldiv@divisor:	
   288                           ; 1 bytes @ 0x0
   289                           
   290                           
   291                           ; 4 bytes @ 0x0
   292     0070                     	ds	2
   293     0072                     ??__Umul8_16:
   294                           
   295                           ; 1 bytes @ 0x2
   296     0072                     	ds	2
   297     0074                     __Umul8_16@product:
   298     0074                     ___lldiv@dividend:	
   299                           ; 2 bytes @ 0x4
   300                           
   301                           
   302                           ; 4 bytes @ 0x4
   303     0074                     	ds	2
   304     0076                     __Umul8_16@word_mpld:
   305                           
   306                           ; 2 bytes @ 0x6
   307     0076                     	ds	2
   308     0078                     __Umul8_16@multiplier:
   309     0078                     ??___lldiv:	
   310                           ; 1 bytes @ 0x8
   311                           
   312                           
   313                           ; 1 bytes @ 0x8
   314     0078                     	ds	1
   315     0079                     ___lldiv@quotient:
   316                           
   317                           ; 4 bytes @ 0x9
   318     0079                     	ds	4
   319     007D                     ___lldiv@counter:
   320                           
   321                           ; 1 bytes @ 0xD
   322     007D                     	ds	1
   323     007E                     ??_PWM_SetFreq:
   324     007E                     ??_main:	
   325                           ; 1 bytes @ 0xE
   326                           
   327                           
   328                           	psect	cstackBANK0
   329     0020                     __pcstackBANK0:	
   330                           ; 1 bytes @ 0xE
   331                           
   332     0020                     ?___xxtofl:
   333     0020                     ___xxtofl@val:	
   334                           ; 4 bytes @ 0x0
   335                           
   336                           
   337                           ; 4 bytes @ 0x0
   338     0020                     	ds	4
   339     0024                     ??___xxtofl:
   340                           
   341                           ; 1 bytes @ 0x4
   342     0024                     	ds	4
   343     0028                     ___xxtofl@sign:
   344                           
   345                           ; 1 bytes @ 0x8
   346     0028                     	ds	1
   347     0029                     ___xxtofl@exp:
   348                           
   349                           ; 1 bytes @ 0x9
   350     0029                     	ds	1
   351     002A                     ___xxtofl@arg:
   352                           
   353                           ; 4 bytes @ 0xA
   354     002A                     	ds	4
   355     002E                     ?___flmul:
   356     002E                     ___flmul@b:	
   357                           ; 4 bytes @ 0xE
   358                           
   359                           
   360                           ; 4 bytes @ 0xE
   361     002E                     	ds	4
   362     0032                     ___flmul@a:
   363                           
   364                           ; 4 bytes @ 0x12
   365     0032                     	ds	4
   366     0036                     ??___flmul:
   367                           
   368                           ; 1 bytes @ 0x16
   369     0036                     	ds	5
   370     003B                     ___flmul@sign:
   371                           
   372                           ; 1 bytes @ 0x1B
   373     003B                     	ds	1
   374     003C                     ___flmul@grs:
   375                           
   376                           ; 4 bytes @ 0x1C
   377     003C                     	ds	4
   378     0040                     ___flmul@aexp:
   379                           
   380                           ; 1 bytes @ 0x20
   381     0040                     	ds	1
   382     0041                     ___flmul@bexp:
   383                           
   384                           ; 1 bytes @ 0x21
   385     0041                     	ds	1
   386     0042                     ___flmul@prod:
   387                           
   388                           ; 4 bytes @ 0x22
   389     0042                     	ds	4
   390     0046                     ___flmul@temp:
   391                           
   392                           ; 2 bytes @ 0x26
   393     0046                     	ds	2
   394     0048                     ?___fldiv:
   395     0048                     ___fldiv@a:	
   396                           ; 4 bytes @ 0x28
   397                           
   398                           
   399                           ; 4 bytes @ 0x28
   400     0048                     	ds	4
   401     004C                     ___fldiv@b:
   402                           
   403                           ; 4 bytes @ 0x2C
   404     004C                     	ds	4
   405     0050                     ??___fldiv:
   406                           
   407                           ; 1 bytes @ 0x30
   408     0050                     	ds	5
   409     0055                     ___fldiv@rem:
   410                           
   411                           ; 4 bytes @ 0x35
   412     0055                     	ds	4
   413     0059                     ___fldiv@sign:
   414                           
   415                           ; 1 bytes @ 0x39
   416     0059                     	ds	1
   417     005A                     ___fldiv@new_exp:
   418                           
   419                           ; 2 bytes @ 0x3A
   420     005A                     	ds	2
   421     005C                     ___fldiv@grs:
   422                           
   423                           ; 4 bytes @ 0x3C
   424     005C                     	ds	4
   425     0060                     ___fldiv@bexp:
   426                           
   427                           ; 1 bytes @ 0x40
   428     0060                     	ds	1
   429     0061                     ___fldiv@aexp:
   430                           
   431                           ; 1 bytes @ 0x41
   432     0061                     	ds	1
   433     0062                     ?___fladd:
   434     0062                     ___fladd@b:	
   435                           ; 4 bytes @ 0x42
   436                           
   437                           
   438                           ; 4 bytes @ 0x42
   439     0062                     	ds	4
   440     0066                     ___fladd@a:
   441                           
   442                           ; 4 bytes @ 0x46
   443     0066                     	ds	4
   444     006A                     ___fladd@signs:
   445                           
   446                           ; 1 bytes @ 0x4A
   447     006A                     	ds	1
   448     006B                     ___fladd@aexp:
   449                           
   450                           ; 1 bytes @ 0x4B
   451     006B                     	ds	1
   452     006C                     ___fladd@bexp:
   453                           
   454                           ; 1 bytes @ 0x4C
   455     006C                     	ds	1
   456     006D                     ___fladd@grs:
   457                           
   458                           ; 1 bytes @ 0x4D
   459     006D                     	ds	1
   460     006E                     ___fltol@sign1:
   461                           
   462                           ; 1 bytes @ 0x4E
   463     006E                     	ds	1
   464     006F                     ___fltol@exp1:
   465                           
   466                           ; 1 bytes @ 0x4F
   467     006F                     	ds	1
   468                           
   469                           	psect	maintext
   470     0C45                     __pmaintext:	
   471 ;;
   472 ;;Main: autosize = 0, tempsize = 0, incstack = 0, save=0
   473 ;;
   474 ;; *************** function _main *****************
   475 ;; Defined at:
   476 ;;		line 28 in file "main.c"
   477 ;; Parameters:    Size  Location     Type
   478 ;;		None
   479 ;; Auto vars:     Size  Location     Type
   480 ;;		None
   481 ;; Return value:  Size  Location     Type
   482 ;;                  1    wreg      void 
   483 ;; Registers used:
   484 ;;		wreg, status,2, status,0, btemp+1, pclath, cstack
   485 ;; Tracked objects:
   486 ;;		On entry : B00/0
   487 ;;		On exit  : 0/0
   488 ;;		Unchanged: 0/0
   489 ;; Data sizes:     COMMON   BANK0   BANK1   BANK3   BANK2
   490 ;;      Params:         0       0       0       0       0
   491 ;;      Locals:         0       0       0       0       0
   492 ;;      Temps:          0       0       0       0       0
   493 ;;      Totals:         0       0       0       0       0
   494 ;;Total ram usage:        0 bytes
   495 ;; Hardware stack levels required when called: 3
   496 ;; This function calls:
   497 ;;		_PWM_SetDutyCycles
   498 ;;		_PWM_SetFreq
   499 ;; This function is called by:
   500 ;;		Startup code after reset
   501 ;; This function uses a non-reentrant model
   502 ;;
   503                           
   504     0C45                     _main:	
   505                           ;psect for function _main
   506                           
   507     0C45                     l1824:	
   508                           ;incstack = 0
   509                           ; Regs used in _main: [wreg+status,2+status,0+btemp+1+pclath+cstack]
   510                           
   511                           
   512                           ;main.c: 31:     TRISC2 = 0;
   513     0C45  1683               	bsf	3,5	;RP0=1, select bank1
   514     0C46  1303               	bcf	3,6	;RP1=0, select bank1
   515     0C47  1107               	bcf	7,2	;volatile
   516     0C48                     l1826:
   517                           
   518                           ;main.c: 32:     PWM_SetFreq(2000);
   519     0C48  3000               	movlw	0
   520     0C49  00B3               	movwf	(PWM_SetFreq@f_hz+3)^(0+128)
   521     0C4A  3000               	movlw	0
   522     0C4B  00B2               	movwf	(PWM_SetFreq@f_hz+2)^(0+128)
   523     0C4C  3007               	movlw	7
   524     0C4D  00B1               	movwf	(PWM_SetFreq@f_hz+1)^(0+128)
   525     0C4E  30D0               	movlw	208
   526     0C4F  00B0               	movwf	PWM_SetFreq@f_hz^(0+128)
   527     0C50  120A  158A  262C  120A  158A  	fcall	_PWM_SetFreq
   528                           
   529                           ;main.c: 34:     PWM_SetDutyCycles(85);
   530     0C55  3055               	movlw	85
   531     0C56  120A  158A  26F3  120A  158A  	fcall	_PWM_SetDutyCycles
   532     0C5B                     l27:	
   533                           ;main.c: 35:     while(1)
   534                           
   535     0C5B                     l28:	
   536                           ;main.c: 36:     {;main.c: 38:     }
   537                           
   538     0C5B  2C5B               	goto	l27
   539     0C5C  120A  118A  2800   	ljmp	start
   540     0C5F                     __end_of_main:
   541                           
   542                           	psect	text1
   543     0E2C                     __ptext1:	
   544 ;; *************** function _PWM_SetFreq *****************
   545 ;; Defined at:
   546 ;;		line 42 in file "main.c"
   547 ;; Parameters:    Size  Location     Type
   548 ;;  f_hz            4   16[BANK1 ] unsigned long 
   549 ;; Auto vars:     Size  Location     Type
   550 ;;  PR2_value       2   20[BANK1 ] int 
   551 ;; Return value:  Size  Location     Type
   552 ;;                  1    wreg      void 
   553 ;; Registers used:
   554 ;;		wreg, status,2, status,0, btemp+1, pclath, cstack
   555 ;; Tracked objects:
   556 ;;		On entry : 0/0
   557 ;;		On exit  : 0/0
   558 ;;		Unchanged: 0/0
   559 ;; Data sizes:     COMMON   BANK0   BANK1   BANK3   BANK2
   560 ;;      Params:         0       0       4       0       0
   561 ;;      Locals:         0       0       2       0       0
   562 ;;      Temps:          0       0       0       0       0
   563 ;;      Totals:         0       0       6       0       0
   564 ;;Total ram usage:        6 bytes
   565 ;; Hardware stack levels used: 1
   566 ;; Hardware stack levels required when called: 2
   567 ;; This function calls:
   568 ;;		___fladd
   569 ;;		___fldiv
   570 ;;		___flmul
   571 ;;		___fltol
   572 ;;		___lldiv
   573 ;;		___xxtofl
   574 ;; This function is called by:
   575 ;;		_main
   576 ;; This function uses a non-reentrant model
   577 ;;
   578                           
   579     0E2C                     _PWM_SetFreq:	
   580                           ;psect for function _PWM_SetFreq
   581                           
   582     0E2C                     l1804:	
   583                           ;incstack = 0
   584                           ; Regs used in _PWM_SetFreq: [wreg+status,2+status,0+btemp+1+pclath+cstack]
   585                           
   586                           
   587                           ;main.c: 42: void PWM_SetFreq(uint32_t f_hz);main.c: 43: {;main.c: 65:     T2CONbits.T2C
      +                          KPS = 0b11;
   588     0E2C  3003               	movlw	3
   589     0E2D  1283               	bcf	3,5	;RP0=0, select bank0
   590     0E2E  1303               	bcf	3,6	;RP1=0, select bank0
   591     0E2F  0492               	iorwf	18,f	;volatile
   592     0E30                     l1806:
   593                           
   594                           ;main.c: 67:     TMR2ON = 1;
   595     0E30  1512               	bsf	18,2	;volatile
   596                           
   597                           ;main.c: 69:     CCP1CONbits.CCP1M = 0b1100;
   598     0E31  0817               	movf	23,w	;volatile
   599     0E32  39F0               	andlw	-16
   600     0E33  380C               	iorlw	12
   601     0E34  0097               	movwf	23	;volatile
   602     0E35                     l1808:
   603                           
   604                           ;main.c: 73:     PWM_FREQ = f_hz;
   605     0E35  1683               	bsf	3,5	;RP0=1, select bank1
   606     0E36  1303               	bcf	3,6	;RP1=0, select bank1
   607     0E37  0833               	movf	(PWM_SetFreq@f_hz+3)^(0+128),w
   608     0E38  00C2               	movwf	(_PWM_FREQ+3)^(0+128)
   609     0E39  0832               	movf	(PWM_SetFreq@f_hz+2)^(0+128),w
   610     0E3A  00C1               	movwf	(_PWM_FREQ+2)^(0+128)
   611     0E3B  0831               	movf	(PWM_SetFreq@f_hz+1)^(0+128),w
   612     0E3C  00C0               	movwf	(_PWM_FREQ+1)^(0+128)
   613     0E3D  0830               	movf	PWM_SetFreq@f_hz^(0+128),w
   614     0E3E  00BF               	movwf	_PWM_FREQ^(0+128)
   615     0E3F                     l1810:
   616                           
   617                           ;main.c: 74:     PWM_PERIOD = 1 / PWM_FREQ;
   618     0E3F  3000               	movlw	0
   619     0E40  00F7               	movwf	___lldiv@dividend+3
   620     0E41  3000               	movlw	0
   621     0E42  00F6               	movwf	___lldiv@dividend+2
   622     0E43  3000               	movlw	0
   623     0E44  00F5               	movwf	___lldiv@dividend+1
   624     0E45  3001               	movlw	1
   625     0E46  00F4               	movwf	___lldiv@dividend
   626     0E47  0842               	movf	(_PWM_FREQ+3)^(0+128),w
   627     0E48  00F3               	movwf	___lldiv@divisor+3
   628     0E49  0841               	movf	(_PWM_FREQ+2)^(0+128),w
   629     0E4A  00F2               	movwf	___lldiv@divisor+2
   630     0E4B  0840               	movf	(_PWM_FREQ+1)^(0+128),w
   631     0E4C  00F1               	movwf	___lldiv@divisor+1
   632     0E4D  083F               	movf	_PWM_FREQ^(0+128),w
   633     0E4E  00F0               	movwf	___lldiv@divisor
   634     0E4F  120A  158A  2486  120A  158A  	fcall	___lldiv
   635     0E54  0873               	movf	?___lldiv+3,w
   636     0E55  1283               	bcf	3,5	;RP0=0, select bank0
   637     0E56  1303               	bcf	3,6	;RP1=0, select bank0
   638     0E57  00A3               	movwf	___xxtofl@val+3
   639     0E58  0872               	movf	?___lldiv+2,w
   640     0E59  00A2               	movwf	___xxtofl@val+2
   641     0E5A  0871               	movf	?___lldiv+1,w
   642     0E5B  00A1               	movwf	___xxtofl@val+1
   643     0E5C  0870               	movf	?___lldiv,w
   644     0E5D  00A0               	movwf	___xxtofl@val
   645     0E5E  3000               	movlw	0
   646     0E5F  120A  158A  2576  120A  158A  	fcall	___xxtofl
   647     0E64  1283               	bcf	3,5	;RP0=0, select bank0
   648     0E65  1303               	bcf	3,6	;RP1=0, select bank0
   649     0E66  0823               	movf	?___xxtofl+3,w
   650     0E67  1683               	bsf	3,5	;RP0=1, select bank1
   651     0E68  1303               	bcf	3,6	;RP1=0, select bank1
   652     0E69  00BE               	movwf	(_PWM_PERIOD+3)^(0+128)
   653     0E6A  1283               	bcf	3,5	;RP0=0, select bank0
   654     0E6B  1303               	bcf	3,6	;RP1=0, select bank0
   655     0E6C  0822               	movf	?___xxtofl+2,w
   656     0E6D  1683               	bsf	3,5	;RP0=1, select bank1
   657     0E6E  1303               	bcf	3,6	;RP1=0, select bank1
   658     0E6F  00BD               	movwf	(_PWM_PERIOD+2)^(0+128)
   659     0E70  1283               	bcf	3,5	;RP0=0, select bank0
   660     0E71  1303               	bcf	3,6	;RP1=0, select bank0
   661     0E72  0821               	movf	?___xxtofl+1,w
   662     0E73  1683               	bsf	3,5	;RP0=1, select bank1
   663     0E74  1303               	bcf	3,6	;RP1=0, select bank1
   664     0E75  00BC               	movwf	(_PWM_PERIOD+1)^(0+128)
   665     0E76  1283               	bcf	3,5	;RP0=0, select bank0
   666     0E77  1303               	bcf	3,6	;RP1=0, select bank0
   667     0E78  0820               	movf	?___xxtofl,w
   668     0E79  1683               	bsf	3,5	;RP0=1, select bank1
   669     0E7A  1303               	bcf	3,6	;RP1=0, select bank1
   670     0E7B  00BB               	movwf	_PWM_PERIOD^(0+128)
   671     0E7C                     l1812:
   672                           
   673                           ;main.c: 75:     int PR2_value = (int)((PWM_PERIOD * 2000000) / (4 * PRESCALE_VAL) - 1);
   674     0E7C  083E               	movf	(_PWM_PERIOD+3)^(0+128),w
   675     0E7D  1283               	bcf	3,5	;RP0=0, select bank0
   676     0E7E  1303               	bcf	3,6	;RP1=0, select bank0
   677     0E7F  00B5               	movwf	___flmul@a+3
   678     0E80  1683               	bsf	3,5	;RP0=1, select bank1
   679     0E81  1303               	bcf	3,6	;RP1=0, select bank1
   680     0E82  083D               	movf	(_PWM_PERIOD+2)^(0+128),w
   681     0E83  1283               	bcf	3,5	;RP0=0, select bank0
   682     0E84  1303               	bcf	3,6	;RP1=0, select bank0
   683     0E85  00B4               	movwf	___flmul@a+2
   684     0E86  1683               	bsf	3,5	;RP0=1, select bank1
   685     0E87  1303               	bcf	3,6	;RP1=0, select bank1
   686     0E88  083C               	movf	(_PWM_PERIOD+1)^(0+128),w
   687     0E89  1283               	bcf	3,5	;RP0=0, select bank0
   688     0E8A  1303               	bcf	3,6	;RP1=0, select bank0
   689     0E8B  00B3               	movwf	___flmul@a+1
   690     0E8C  1683               	bsf	3,5	;RP0=1, select bank1
   691     0E8D  1303               	bcf	3,6	;RP1=0, select bank1
   692     0E8E  083B               	movf	_PWM_PERIOD^(0+128),w
   693     0E8F  1283               	bcf	3,5	;RP0=0, select bank0
   694     0E90  1303               	bcf	3,6	;RP1=0, select bank0
   695     0E91  00B2               	movwf	___flmul@a
   696     0E92  3049               	movlw	73
   697     0E93  00B1               	movwf	___flmul@b+3
   698     0E94  30F4               	movlw	244
   699     0E95  00B0               	movwf	___flmul@b+2
   700     0E96  3024               	movlw	36
   701     0E97  00AF               	movwf	___flmul@b+1
   702     0E98  3000               	movlw	0
   703     0E99  00AE               	movwf	___flmul@b
   704     0E9A  120A  118A  24B2  120A  158A  	fcall	___flmul
   705     0E9F  1283               	bcf	3,5	;RP0=0, select bank0
   706     0EA0  1303               	bcf	3,6	;RP1=0, select bank0
   707     0EA1  0831               	movf	?___flmul+3,w
   708     0EA2  00CF               	movwf	___fldiv@b+3
   709     0EA3  0830               	movf	?___flmul+2,w
   710     0EA4  00CE               	movwf	___fldiv@b+2
   711     0EA5  082F               	movf	?___flmul+1,w
   712     0EA6  00CD               	movwf	___fldiv@b+1
   713     0EA7  082E               	movf	?___flmul,w
   714     0EA8  00CC               	movwf	___fldiv@b
   715     0EA9  3042               	movlw	66
   716     0EAA  00CB               	movwf	___fldiv@a+3
   717     0EAB  3080               	movlw	128
   718     0EAC  00CA               	movwf	___fldiv@a+2
   719     0EAD  3000               	movlw	0
   720     0EAE  00C9               	movwf	___fldiv@a+1
   721     0EAF  3000               	movlw	0
   722     0EB0  00C8               	movwf	___fldiv@a
   723     0EB1  120A  118A  2016  120A  158A  	fcall	___fldiv
   724     0EB6  1283               	bcf	3,5	;RP0=0, select bank0
   725     0EB7  1303               	bcf	3,6	;RP1=0, select bank0
   726     0EB8  084B               	movf	?___fldiv+3,w
   727     0EB9  00E9               	movwf	___fladd@a+3
   728     0EBA  084A               	movf	?___fldiv+2,w
   729     0EBB  00E8               	movwf	___fladd@a+2
   730     0EBC  0849               	movf	?___fldiv+1,w
   731     0EBD  00E7               	movwf	___fladd@a+1
   732     0EBE  0848               	movf	?___fldiv,w
   733     0EBF  00E6               	movwf	___fladd@a
   734     0EC0  30BF               	movlw	191
   735     0EC1  00E5               	movwf	___fladd@b+3
   736     0EC2  3080               	movlw	128
   737     0EC3  00E4               	movwf	___fladd@b+2
   738     0EC4  3000               	movlw	0
   739     0EC5  00E3               	movwf	___fladd@b+1
   740     0EC6  3000               	movlw	0
   741     0EC7  00E2               	movwf	___fladd@b
   742     0EC8  120A  118A  21E0  120A  158A  	fcall	___fladd
   743     0ECD  1283               	bcf	3,5	;RP0=0, select bank0
   744     0ECE  1303               	bcf	3,6	;RP1=0, select bank0
   745     0ECF  0865               	movf	?___fladd+3,w
   746     0ED0  1683               	bsf	3,5	;RP0=1, select bank1
   747     0ED1  1303               	bcf	3,6	;RP1=0, select bank1
   748     0ED2  00AB               	movwf	(___fltol@f1+3)^(0+128)
   749     0ED3  1283               	bcf	3,5	;RP0=0, select bank0
   750     0ED4  1303               	bcf	3,6	;RP1=0, select bank0
   751     0ED5  0864               	movf	?___fladd+2,w
   752     0ED6  1683               	bsf	3,5	;RP0=1, select bank1
   753     0ED7  1303               	bcf	3,6	;RP1=0, select bank1
   754     0ED8  00AA               	movwf	(___fltol@f1+2)^(0+128)
   755     0ED9  1283               	bcf	3,5	;RP0=0, select bank0
   756     0EDA  1303               	bcf	3,6	;RP1=0, select bank0
   757     0EDB  0863               	movf	?___fladd+1,w
   758     0EDC  1683               	bsf	3,5	;RP0=1, select bank1
   759     0EDD  1303               	bcf	3,6	;RP1=0, select bank1
   760     0EDE  00A9               	movwf	(___fltol@f1+1)^(0+128)
   761     0EDF  1283               	bcf	3,5	;RP0=0, select bank0
   762     0EE0  1303               	bcf	3,6	;RP1=0, select bank0
   763     0EE1  0862               	movf	?___fladd,w
   764     0EE2  1683               	bsf	3,5	;RP0=1, select bank1
   765     0EE3  1303               	bcf	3,6	;RP1=0, select bank1
   766     0EE4  00A8               	movwf	___fltol@f1^(0+128)
   767     0EE5  120A  158A  24EA  120A  158A  	fcall	___fltol
   768     0EEA  1683               	bsf	3,5	;RP0=1, select bank1
   769     0EEB  1303               	bcf	3,6	;RP1=0, select bank1
   770     0EEC  0829               	movf	(?___fltol+1)^(0+128),w
   771     0EED  00B5               	movwf	(PWM_SetFreq@PR2_value+1)^(0+128)
   772     0EEE  0828               	movf	?___fltol^(0+128),w
   773     0EEF  00B4               	movwf	PWM_SetFreq@PR2_value^(0+128)
   774     0EF0                     l1814:
   775                           
   776                           ;main.c: 76:     PR2 = PR2_value;
   777     0EF0  0834               	movf	PWM_SetFreq@PR2_value^(0+128),w
   778     0EF1  0092               	movwf	18	;volatile
   779     0EF2                     l33:
   780     0EF2  0008               	return
   781     0EF3                     __end_of_PWM_SetFreq:
   782                           
   783                           	psect	text2
   784     0C86                     __ptext2:	
   785 ;; *************** function ___lldiv *****************
   786 ;; Defined at:
   787 ;;		line 5 in file "C:\Program Files\Microchip\xc8\v2.50\pic\sources\c99\common\__lldiv.c"
   788 ;; Parameters:    Size  Location     Type
   789 ;;  divisor         4    0[COMMON] unsigned long 
   790 ;;  dividend        4    4[COMMON] unsigned long 
   791 ;; Auto vars:     Size  Location     Type
   792 ;;  quotient        4    9[COMMON] unsigned long 
   793 ;;  counter         1   13[COMMON] unsigned char 
   794 ;; Return value:  Size  Location     Type
   795 ;;                  4    0[COMMON] unsigned long 
   796 ;; Registers used:
   797 ;;		wreg, status,2, status,0
   798 ;; Tracked objects:
   799 ;;		On entry : 0/0
   800 ;;		On exit  : 0/0
   801 ;;		Unchanged: 0/0
   802 ;; Data sizes:     COMMON   BANK0   BANK1   BANK3   BANK2
   803 ;;      Params:         8       0       0       0       0
   804 ;;      Locals:         5       0       0       0       0
   805 ;;      Temps:          1       0       0       0       0
   806 ;;      Totals:        14       0       0       0       0
   807 ;;Total ram usage:       14 bytes
   808 ;; Hardware stack levels used: 1
   809 ;; This function calls:
   810 ;;		Nothing
   811 ;; This function is called by:
   812 ;;		_PWM_SetFreq
   813 ;; This function uses a non-reentrant model
   814 ;;
   815                           
   816     0C86                     ___lldiv:	
   817                           ;psect for function ___lldiv
   818                           
   819     0C86                     l1218:	
   820                           ;incstack = 0
   821                           ; Regs used in ___lldiv: [wreg+status,2+status,0]
   822                           
   823     0C86  3000               	movlw	0
   824     0C87  00FC               	movwf	___lldiv@quotient+3
   825     0C88  3000               	movlw	0
   826     0C89  00FB               	movwf	___lldiv@quotient+2
   827     0C8A  3000               	movlw	0
   828     0C8B  00FA               	movwf	___lldiv@quotient+1
   829     0C8C  3000               	movlw	0
   830     0C8D  00F9               	movwf	___lldiv@quotient
   831     0C8E  0873               	movf	___lldiv@divisor+3,w
   832     0C8F  0472               	iorwf	___lldiv@divisor+2,w
   833     0C90  0471               	iorwf	___lldiv@divisor+1,w
   834     0C91  0470               	iorwf	___lldiv@divisor,w
   835     0C92  1903               	skipnz
   836     0C93  2C95               	goto	u1501
   837     0C94  2C96               	goto	u1500
   838     0C95                     u1501:
   839     0C95  2CE1               	goto	l1238
   840     0C96                     u1500:
   841     0C96                     l1220:
   842     0C96  3001               	movlw	1
   843     0C97  00FD               	movwf	___lldiv@counter
   844     0C98  2CA4               	goto	l1224
   845     0C99                     l1222:
   846     0C99  3001               	movlw	1
   847     0C9A  00F8               	movwf	??___lldiv
   848     0C9B                     u1515:
   849     0C9B  1003               	clrc
   850     0C9C  0DF0               	rlf	___lldiv@divisor,f
   851     0C9D  0DF1               	rlf	___lldiv@divisor+1,f
   852     0C9E  0DF2               	rlf	___lldiv@divisor+2,f
   853     0C9F  0DF3               	rlf	___lldiv@divisor+3,f
   854     0CA0  0BF8               	decfsz	??___lldiv,f
   855     0CA1  2C9B               	goto	u1515
   856     0CA2  3001               	movlw	1
   857     0CA3  07FD               	addwf	___lldiv@counter,f
   858     0CA4                     l1224:
   859     0CA4  1FF3               	btfss	___lldiv@divisor+3,7
   860     0CA5  2CA7               	goto	u1521
   861     0CA6  2CA8               	goto	u1520
   862     0CA7                     u1521:
   863     0CA7  2C99               	goto	l1222
   864     0CA8                     u1520:
   865     0CA8                     l1226:
   866     0CA8  3001               	movlw	1
   867     0CA9  00F8               	movwf	??___lldiv
   868     0CAA                     u1535:
   869     0CAA  1003               	clrc
   870     0CAB  0DF9               	rlf	___lldiv@quotient,f
   871     0CAC  0DFA               	rlf	___lldiv@quotient+1,f
   872     0CAD  0DFB               	rlf	___lldiv@quotient+2,f
   873     0CAE  0DFC               	rlf	___lldiv@quotient+3,f
   874     0CAF  0BF8               	decfsz	??___lldiv,f
   875     0CB0  2CAA               	goto	u1535
   876     0CB1                     l1228:
   877     0CB1  0873               	movf	___lldiv@divisor+3,w
   878     0CB2  0277               	subwf	___lldiv@dividend+3,w
   879     0CB3  1D03               	skipz
   880     0CB4  2CBF               	goto	u1545
   881     0CB5  0872               	movf	___lldiv@divisor+2,w
   882     0CB6  0276               	subwf	___lldiv@dividend+2,w
   883     0CB7  1D03               	skipz
   884     0CB8  2CBF               	goto	u1545
   885     0CB9  0871               	movf	___lldiv@divisor+1,w
   886     0CBA  0275               	subwf	___lldiv@dividend+1,w
   887     0CBB  1D03               	skipz
   888     0CBC  2CBF               	goto	u1545
   889     0CBD  0870               	movf	___lldiv@divisor,w
   890     0CBE  0274               	subwf	___lldiv@dividend,w
   891     0CBF                     u1545:
   892     0CBF  1C03               	skipc
   893     0CC0  2CC2               	goto	u1541
   894     0CC1  2CC3               	goto	u1540
   895     0CC2                     u1541:
   896     0CC2  2CD2               	goto	l1234
   897     0CC3                     u1540:
   898     0CC3                     l1230:
   899     0CC3  0870               	movf	___lldiv@divisor,w
   900     0CC4  02F4               	subwf	___lldiv@dividend,f
   901     0CC5  0871               	movf	___lldiv@divisor+1,w
   902     0CC6  1C03               	skipc
   903     0CC7  0F71               	incfsz	___lldiv@divisor+1,w
   904     0CC8  02F5               	subwf	___lldiv@dividend+1,f
   905     0CC9  0872               	movf	___lldiv@divisor+2,w
   906     0CCA  1C03               	skipc
   907     0CCB  0F72               	incfsz	___lldiv@divisor+2,w
   908     0CCC  02F6               	subwf	___lldiv@dividend+2,f
   909     0CCD  0873               	movf	___lldiv@divisor+3,w
   910     0CCE  1C03               	skipc
   911     0CCF  0F73               	incfsz	___lldiv@divisor+3,w
   912     0CD0  02F7               	subwf	___lldiv@dividend+3,f
   913     0CD1                     l1232:
   914     0CD1  1479               	bsf	___lldiv@quotient,0
   915     0CD2                     l1234:
   916     0CD2  3001               	movlw	1
   917     0CD3                     u1555:
   918     0CD3  1003               	clrc
   919     0CD4  0CF3               	rrf	___lldiv@divisor+3,f
   920     0CD5  0CF2               	rrf	___lldiv@divisor+2,f
   921     0CD6  0CF1               	rrf	___lldiv@divisor+1,f
   922     0CD7  0CF0               	rrf	___lldiv@divisor,f
   923     0CD8  3EFF               	addlw	-1
   924     0CD9  1D03               	skipz
   925     0CDA  2CD3               	goto	u1555
   926     0CDB                     l1236:
   927     0CDB  3001               	movlw	1
   928     0CDC  02FD               	subwf	___lldiv@counter,f
   929     0CDD  1D03               	btfss	3,2
   930     0CDE  2CE0               	goto	u1561
   931     0CDF  2CE1               	goto	u1560
   932     0CE0                     u1561:
   933     0CE0  2CA8               	goto	l1226
   934     0CE1                     u1560:
   935     0CE1                     l1238:
   936     0CE1  087C               	movf	___lldiv@quotient+3,w
   937     0CE2  00F3               	movwf	?___lldiv+3
   938     0CE3  087B               	movf	___lldiv@quotient+2,w
   939     0CE4  00F2               	movwf	?___lldiv+2
   940     0CE5  087A               	movf	___lldiv@quotient+1,w
   941     0CE6  00F1               	movwf	?___lldiv+1
   942     0CE7  0879               	movf	___lldiv@quotient,w
   943     0CE8  00F0               	movwf	?___lldiv
   944     0CE9                     l158:
   945     0CE9  0008               	return
   946     0CEA                     __end_of___lldiv:
   947                           
   948                           	psect	text3
   949     01E0                     __ptext3:	
   950 ;; *************** function ___fladd *****************
   951 ;; Defined at:
   952 ;;		line 10 in file "C:\Program Files\Microchip\xc8\v2.50\pic\sources\c99\common\sprcadd.c"
   953 ;; Parameters:    Size  Location     Type
   954 ;;  b               4   66[BANK0 ] unsigned long 
   955 ;;  a               4   70[BANK0 ] unsigned long 
   956 ;; Auto vars:     Size  Location     Type
   957 ;;  grs             1   77[BANK0 ] unsigned char 
   958 ;;  bexp            1   76[BANK0 ] unsigned char 
   959 ;;  aexp            1   75[BANK0 ] unsigned char 
   960 ;;  signs           1   74[BANK0 ] unsigned char 
   961 ;; Return value:  Size  Location     Type
   962 ;;                  4   66[BANK0 ] unsigned char 
   963 ;; Registers used:
   964 ;;		wreg, status,2, status,0, btemp+1
   965 ;; Tracked objects:
   966 ;;		On entry : 0/0
   967 ;;		On exit  : 0/0
   968 ;;		Unchanged: 0/0
   969 ;; Data sizes:     COMMON   BANK0   BANK1   BANK3   BANK2
   970 ;;      Params:         0       8       0       0       0
   971 ;;      Locals:         0       4       0       0       0
   972 ;;      Temps:          0       0       8       0       0
   973 ;;      Totals:         0      12       8       0       0
   974 ;;Total ram usage:       20 bytes
   975 ;; Hardware stack levels used: 1
   976 ;; This function calls:
   977 ;;		Nothing
   978 ;; This function is called by:
   979 ;;		_PWM_SetFreq
   980 ;; This function uses a non-reentrant model
   981 ;;
   982                           
   983     01E0                     ___fladd:	
   984                           ;psect for function ___fladd
   985                           
   986     01E0                     l1278:	
   987                           ;incstack = 0
   988                           ; Regs used in ___fladd: [wreg+status,2+status,0+btemp+1]
   989                           
   990     01E0  1283               	bcf	3,5	;RP0=0, select bank0
   991     01E1  1303               	bcf	3,6	;RP1=0, select bank0
   992     01E2  0865               	movf	___fladd@b+3,w
   993     01E3  00EA               	movwf	___fladd@signs
   994     01E4                     l1280:
   995     01E4  3080               	movlw	128
   996     01E5  05EA               	andwf	___fladd@signs,f
   997     01E6                     l1282:
   998     01E6  0865               	movf	___fladd@b+3,w
   999     01E7  1683               	bsf	3,5	;RP0=1, select bank1
  1000     01E8  1303               	bcf	3,6	;RP1=0, select bank1
  1001     01E9  00A0               	movwf	??___fladd^(0+128)
  1002     01EA  0720               	addwf	??___fladd^(0+128),w
  1003     01EB  1283               	bcf	3,5	;RP0=0, select bank0
  1004     01EC  1303               	bcf	3,6	;RP1=0, select bank0
  1005     01ED  00EC               	movwf	___fladd@bexp
  1006     01EE                     l1284:
  1007     01EE  1FE4               	btfss	___fladd@b+2,7
  1008     01EF  29F1               	goto	u1671
  1009     01F0  29F2               	goto	u1670
  1010     01F1                     u1671:
  1011     01F1  29F3               	goto	l1288
  1012     01F2                     u1670:
  1013     01F2                     l1286:
  1014     01F2  146C               	bsf	___fladd@bexp,0
  1015     01F3                     l1288:
  1016     01F3  086C               	movf	___fladd@bexp,w
  1017     01F4  1903               	btfsc	3,2
  1018     01F5  29F7               	goto	u1681
  1019     01F6  29F8               	goto	u1680
  1020     01F7                     u1681:
  1021     01F7  2A08               	goto	l1298
  1022     01F8                     u1680:
  1023     01F8                     l1290:
  1024     01F8  0A6C               	incf	___fladd@bexp,w
  1025     01F9  1D03               	btfss	3,2
  1026     01FA  29FC               	goto	u1691
  1027     01FB  29FD               	goto	u1690
  1028     01FC                     u1691:
  1029     01FC  2A05               	goto	l1294
  1030     01FD                     u1690:
  1031     01FD                     l1292:
  1032     01FD  3000               	movlw	0
  1033     01FE  00E5               	movwf	___fladd@b+3
  1034     01FF  3000               	movlw	0
  1035     0200  00E4               	movwf	___fladd@b+2
  1036     0201  3000               	movlw	0
  1037     0202  00E3               	movwf	___fladd@b+1
  1038     0203  3000               	movlw	0
  1039     0204  00E2               	movwf	___fladd@b
  1040     0205                     l1294:
  1041     0205  17E4               	bsf	___fladd@b+2,7
  1042     0206                     l1296:
  1043     0206  01E5               	clrf	___fladd@b+3
  1044     0207  2A10               	goto	l418
  1045     0208                     l1298:
  1046     0208  3000               	movlw	0
  1047     0209  00E5               	movwf	___fladd@b+3
  1048     020A  3000               	movlw	0
  1049     020B  00E4               	movwf	___fladd@b+2
  1050     020C  3000               	movlw	0
  1051     020D  00E3               	movwf	___fladd@b+1
  1052     020E  3000               	movlw	0
  1053     020F  00E2               	movwf	___fladd@b
  1054     0210                     l418:
  1055     0210  0869               	movf	___fladd@a+3,w
  1056     0211  00EB               	movwf	___fladd@aexp
  1057     0212                     l1300:
  1058     0212  3080               	movlw	128
  1059     0213  05EB               	andwf	___fladd@aexp,f
  1060     0214                     l1302:
  1061     0214  086B               	movf	___fladd@aexp,w
  1062     0215  066A               	xorwf	___fladd@signs,w
  1063     0216  1903               	skipnz
  1064     0217  2A19               	goto	u1701
  1065     0218  2A1A               	goto	u1700
  1066     0219                     u1701:
  1067     0219  2A1B               	goto	l1306
  1068     021A                     u1700:
  1069     021A                     l1304:
  1070     021A  176A               	bsf	___fladd@signs,6
  1071     021B                     l1306:
  1072     021B  0869               	movf	___fladd@a+3,w
  1073     021C  1683               	bsf	3,5	;RP0=1, select bank1
  1074     021D  1303               	bcf	3,6	;RP1=0, select bank1
  1075     021E  00A0               	movwf	??___fladd^(0+128)
  1076     021F  0720               	addwf	??___fladd^(0+128),w
  1077     0220  1283               	bcf	3,5	;RP0=0, select bank0
  1078     0221  1303               	bcf	3,6	;RP1=0, select bank0
  1079     0222  00EB               	movwf	___fladd@aexp
  1080     0223                     l1308:
  1081     0223  1FE8               	btfss	___fladd@a+2,7
  1082     0224  2A26               	goto	u1711
  1083     0225  2A27               	goto	u1710
  1084     0226                     u1711:
  1085     0226  2A28               	goto	l1312
  1086     0227                     u1710:
  1087     0227                     l1310:
  1088     0227  146B               	bsf	___fladd@aexp,0
  1089     0228                     l1312:
  1090     0228  086B               	movf	___fladd@aexp,w
  1091     0229  1903               	btfsc	3,2
  1092     022A  2A2C               	goto	u1721
  1093     022B  2A2D               	goto	u1720
  1094     022C                     u1721:
  1095     022C  2A3D               	goto	l1322
  1096     022D                     u1720:
  1097     022D                     l1314:
  1098     022D  0A6B               	incf	___fladd@aexp,w
  1099     022E  1D03               	btfss	3,2
  1100     022F  2A31               	goto	u1731
  1101     0230  2A32               	goto	u1730
  1102     0231                     u1731:
  1103     0231  2A3A               	goto	l1318
  1104     0232                     u1730:
  1105     0232                     l1316:
  1106     0232  3000               	movlw	0
  1107     0233  00E9               	movwf	___fladd@a+3
  1108     0234  3000               	movlw	0
  1109     0235  00E8               	movwf	___fladd@a+2
  1110     0236  3000               	movlw	0
  1111     0237  00E7               	movwf	___fladd@a+1
  1112     0238  3000               	movlw	0
  1113     0239  00E6               	movwf	___fladd@a
  1114     023A                     l1318:
  1115     023A  17E8               	bsf	___fladd@a+2,7
  1116     023B                     l1320:
  1117     023B  01E9               	clrf	___fladd@a+3
  1118     023C  2A45               	goto	l423
  1119     023D                     l1322:
  1120     023D  3000               	movlw	0
  1121     023E  00E9               	movwf	___fladd@a+3
  1122     023F  3000               	movlw	0
  1123     0240  00E8               	movwf	___fladd@a+2
  1124     0241  3000               	movlw	0
  1125     0242  00E7               	movwf	___fladd@a+1
  1126     0243  3000               	movlw	0
  1127     0244  00E6               	movwf	___fladd@a
  1128     0245                     l423:
  1129     0245  086C               	movf	___fladd@bexp,w
  1130     0246  026B               	subwf	___fladd@aexp,w
  1131     0247  1803               	skipnc
  1132     0248  2A4A               	goto	u1741
  1133     0249  2A4B               	goto	u1740
  1134     024A                     u1741:
  1135     024A  2A6F               	goto	l1358
  1136     024B                     u1740:
  1137     024B                     l1324:
  1138     024B  1F6A               	btfss	___fladd@signs,6
  1139     024C  2A4E               	goto	u1751
  1140     024D  2A4F               	goto	u1750
  1141     024E                     u1751:
  1142     024E  2A51               	goto	l1328
  1143     024F                     u1750:
  1144     024F                     l1326:
  1145     024F  3080               	movlw	128
  1146     0250  06EA               	xorwf	___fladd@signs,f
  1147     0251                     l1328:
  1148     0251  086C               	movf	___fladd@bexp,w
  1149     0252  00ED               	movwf	___fladd@grs
  1150     0253                     l1330:
  1151     0253  086B               	movf	___fladd@aexp,w
  1152     0254  00EC               	movwf	___fladd@bexp
  1153     0255                     l1332:
  1154     0255  086D               	movf	___fladd@grs,w
  1155     0256  00EB               	movwf	___fladd@aexp
  1156     0257                     l1334:
  1157     0257  0862               	movf	___fladd@b,w
  1158     0258  00ED               	movwf	___fladd@grs
  1159     0259                     l1336:
  1160     0259  0866               	movf	___fladd@a,w
  1161     025A  00E2               	movwf	___fladd@b
  1162     025B                     l1338:
  1163     025B  086D               	movf	___fladd@grs,w
  1164     025C  00E6               	movwf	___fladd@a
  1165     025D                     l1340:
  1166     025D  0863               	movf	___fladd@b+1,w
  1167     025E  00ED               	movwf	___fladd@grs
  1168     025F                     l1342:
  1169     025F  0867               	movf	___fladd@a+1,w
  1170     0260  00E3               	movwf	___fladd@b+1
  1171     0261                     l1344:
  1172     0261  086D               	movf	___fladd@grs,w
  1173     0262  00E7               	movwf	___fladd@a+1
  1174     0263                     l1346:
  1175     0263  0864               	movf	___fladd@b+2,w
  1176     0264  00ED               	movwf	___fladd@grs
  1177     0265                     l1348:
  1178     0265  0868               	movf	___fladd@a+2,w
  1179     0266  00E4               	movwf	___fladd@b+2
  1180     0267                     l1350:
  1181     0267  086D               	movf	___fladd@grs,w
  1182     0268  00E8               	movwf	___fladd@a+2
  1183     0269                     l1352:
  1184     0269  0865               	movf	___fladd@b+3,w
  1185     026A  00ED               	movwf	___fladd@grs
  1186     026B                     l1354:
  1187     026B  0869               	movf	___fladd@a+3,w
  1188     026C  00E5               	movwf	___fladd@b+3
  1189     026D                     l1356:
  1190     026D  086D               	movf	___fladd@grs,w
  1191     026E  00E9               	movwf	___fladd@a+3
  1192     026F                     l1358:
  1193     026F  01ED               	clrf	___fladd@grs
  1194     0270                     l1360:
  1195     0270  086B               	movf	___fladd@aexp,w
  1196     0271  1683               	bsf	3,5	;RP0=1, select bank1
  1197     0272  1303               	bcf	3,6	;RP1=0, select bank1
  1198     0273  00A0               	movwf	??___fladd^(0+128)
  1199     0274  01A1               	clrf	(??___fladd^(0+128)+1)
  1200     0275  0821               	movf	(??___fladd+1)^(0+128),w
  1201     0276  00A3               	movwf	((??___fladd+2)^(0+128)+1)
  1202     0277  1283               	bcf	3,5	;RP0=0, select bank0
  1203     0278  1303               	bcf	3,6	;RP1=0, select bank0
  1204     0279  086C               	movf	___fladd@bexp,w
  1205     027A  1683               	bsf	3,5	;RP0=1, select bank1
  1206     027B  1303               	bcf	3,6	;RP1=0, select bank1
  1207     027C  0220               	subwf	??___fladd^(0+128),w
  1208     027D  00A2               	movwf	(??___fladd+2)^(0+128)
  1209     027E  1C03               	skipc
  1210     027F  03A3               	decf	((??___fladd+2)^(0+128)+1),f
  1211     0280  0823               	movf	(??___fladd+3)^(0+128),w
  1212     0281  3A80               	xorlw	128
  1213     0282  00FF               	movwf	btemp+1
  1214     0283  3080               	movlw	128
  1215     0284  027F               	subwf	btemp+1,w
  1216     0285  1D03               	skipz
  1217     0286  2A89               	goto	u1765
  1218     0287  301A               	movlw	26
  1219     0288  0222               	subwf	(??___fladd+2)^(0+128),w
  1220     0289                     u1765:
  1221     0289  1C03               	skipc
  1222     028A  2A8C               	goto	u1761
  1223     028B  2A8D               	goto	u1760
  1224     028C                     u1761:
  1225     028C  2ACE               	goto	l1376
  1226     028D                     u1760:
  1227     028D                     l1362:
  1228     028D  1283               	bcf	3,5	;RP0=0, select bank0
  1229     028E  1303               	bcf	3,6	;RP1=0, select bank0
  1230     028F  0865               	movf	___fladd@b+3,w
  1231     0290  0464               	iorwf	___fladd@b+2,w
  1232     0291  0463               	iorwf	___fladd@b+1,w
  1233     0292  0462               	iorwf	___fladd@b,w
  1234     0293  1D03               	skipz
  1235     0294  2A96               	goto	u1771
  1236     0295  2A98               	goto	u1770
  1237     0296                     u1771:
  1238     0296  3001               	movlw	1
  1239     0297  2A99               	goto	u1780
  1240     0298                     u1770:
  1241     0298  3000               	movlw	0
  1242     0299                     u1780:
  1243     0299  00ED               	movwf	___fladd@grs
  1244     029A  3000               	movlw	0
  1245     029B  00E5               	movwf	___fladd@b+3
  1246     029C  3000               	movlw	0
  1247     029D  00E4               	movwf	___fladd@b+2
  1248     029E  3000               	movlw	0
  1249     029F  00E3               	movwf	___fladd@b+1
  1250     02A0  3000               	movlw	0
  1251     02A1  00E2               	movwf	___fladd@b
  1252     02A2  086B               	movf	___fladd@aexp,w
  1253     02A3  00EC               	movwf	___fladd@bexp
  1254     02A4  2AD6               	goto	l427
  1255     02A5                     l429:
  1256     02A5  1C6D               	btfss	___fladd@grs,0
  1257     02A6  2AA8               	goto	u1791
  1258     02A7  2AA9               	goto	u1790
  1259     02A8                     u1791:
  1260     02A8  2AB4               	goto	l1366
  1261     02A9                     u1790:
  1262     02A9                     l1364:
  1263     02A9  086D               	movf	___fladd@grs,w
  1264     02AA  1683               	bsf	3,5	;RP0=1, select bank1
  1265     02AB  1303               	bcf	3,6	;RP1=0, select bank1
  1266     02AC  00A0               	movwf	??___fladd^(0+128)
  1267     02AD  1003               	clrc
  1268     02AE  0C20               	rrf	??___fladd^(0+128),w
  1269     02AF  3801               	iorlw	1
  1270     02B0  1283               	bcf	3,5	;RP0=0, select bank0
  1271     02B1  1303               	bcf	3,6	;RP1=0, select bank0
  1272     02B2  00ED               	movwf	___fladd@grs
  1273     02B3  2AB6               	goto	l1368
  1274     02B4                     l1366:
  1275     02B4  1003               	clrc
  1276     02B5  0CED               	rrf	___fladd@grs,f
  1277     02B6                     l1368:
  1278     02B6  1C62               	btfss	___fladd@b,0
  1279     02B7  2AB9               	goto	u1801
  1280     02B8  2ABA               	goto	u1800
  1281     02B9                     u1801:
  1282     02B9  2ABB               	goto	l1372
  1283     02BA                     u1800:
  1284     02BA                     l1370:
  1285     02BA  17ED               	bsf	___fladd@grs,7
  1286     02BB                     l1372:
  1287     02BB  3001               	movlw	1
  1288     02BC  1683               	bsf	3,5	;RP0=1, select bank1
  1289     02BD  1303               	bcf	3,6	;RP1=0, select bank1
  1290     02BE  00A0               	movwf	??___fladd^(0+128)
  1291     02BF                     u1815:
  1292     02BF  1283               	bcf	3,5	;RP0=0, select bank0
  1293     02C0  1303               	bcf	3,6	;RP1=0, select bank0
  1294     02C1  0D65               	rlf	___fladd@b+3,w
  1295     02C2  0CE5               	rrf	___fladd@b+3,f
  1296     02C3  0CE4               	rrf	___fladd@b+2,f
  1297     02C4  0CE3               	rrf	___fladd@b+1,f
  1298     02C5  0CE2               	rrf	___fladd@b,f
  1299     02C6  1683               	bsf	3,5	;RP0=1, select bank1
  1300     02C7  1303               	bcf	3,6	;RP1=0, select bank1
  1301     02C8  0BA0               	decfsz	(??___fladd^(0+128))& (0+127),f
  1302     02C9  2ABF               	goto	u1815
  1303     02CA                     l1374:
  1304     02CA  3001               	movlw	1
  1305     02CB  1283               	bcf	3,5	;RP0=0, select bank0
  1306     02CC  1303               	bcf	3,6	;RP1=0, select bank0
  1307     02CD  07EC               	addwf	___fladd@bexp,f
  1308     02CE                     l1376:
  1309     02CE  1283               	bcf	3,5	;RP0=0, select bank0
  1310     02CF  1303               	bcf	3,6	;RP1=0, select bank0
  1311     02D0  086B               	movf	___fladd@aexp,w
  1312     02D1  026C               	subwf	___fladd@bexp,w
  1313     02D2  1C03               	skipc
  1314     02D3  2AD5               	goto	u1821
  1315     02D4  2AD6               	goto	u1820
  1316     02D5                     u1821:
  1317     02D5  2AA5               	goto	l429
  1318     02D6                     u1820:
  1319     02D6                     l427:
  1320     02D6  1B6A               	btfsc	___fladd@signs,6
  1321     02D7  2AD9               	goto	u1831
  1322     02D8  2ADA               	goto	u1830
  1323     02D9                     u1831:
  1324     02D9  2B2D               	goto	l1402
  1325     02DA                     u1830:
  1326     02DA                     l1378:
  1327     02DA  086C               	movf	___fladd@bexp,w
  1328     02DB  1D03               	btfss	3,2
  1329     02DC  2ADE               	goto	u1841
  1330     02DD  2ADF               	goto	u1840
  1331     02DE                     u1841:
  1332     02DE  2AE8               	goto	l1384
  1333     02DF                     u1840:
  1334     02DF                     l1380:
  1335     02DF  3000               	movlw	0
  1336     02E0  00E5               	movwf	?___fladd+3
  1337     02E1  3000               	movlw	0
  1338     02E2  00E4               	movwf	?___fladd+2
  1339     02E3  3000               	movlw	0
  1340     02E4  00E3               	movwf	?___fladd+1
  1341     02E5  3000               	movlw	0
  1342     02E6  00E2               	movwf	?___fladd
  1343     02E7  2CB1               	goto	l436
  1344     02E8                     l1384:
  1345     02E8  0866               	movf	___fladd@a,w
  1346     02E9  07E2               	addwf	___fladd@b,f
  1347     02EA  0867               	movf	___fladd@a+1,w
  1348     02EB  1103               	clrz
  1349     02EC  1803               	skipnc
  1350     02ED  3E01               	addlw	1
  1351     02EE  1903               	skipnz
  1352     02EF  2AF1               	goto	u1851
  1353     02F0  07E3               	addwf	___fladd@b+1,f
  1354     02F1                     u1851:
  1355     02F1  0868               	movf	___fladd@a+2,w
  1356     02F2  1103               	clrz
  1357     02F3  1803               	skipnc
  1358     02F4  3E01               	addlw	1
  1359     02F5  1903               	skipnz
  1360     02F6  2AF8               	goto	u1852
  1361     02F7  07E4               	addwf	___fladd@b+2,f
  1362     02F8                     u1852:
  1363     02F8  0869               	movf	___fladd@a+3,w
  1364     02F9  1103               	clrz
  1365     02FA  1803               	skipnc
  1366     02FB  3E01               	addlw	1
  1367     02FC  1903               	skipnz
  1368     02FD  2AFF               	goto	u1853
  1369     02FE  07E5               	addwf	___fladd@b+3,f
  1370     02FF                     u1853:
  1371     02FF                     l1386:
  1372     02FF  1C65               	btfss	___fladd@b+3,0
  1373     0300  2B02               	goto	u1861
  1374     0301  2B03               	goto	u1860
  1375     0302                     u1861:
  1376     0302  2C1D               	goto	l1438
  1377     0303                     u1860:
  1378     0303                     l1388:
  1379     0303  1C6D               	btfss	___fladd@grs,0
  1380     0304  2B06               	goto	u1871
  1381     0305  2B07               	goto	u1870
  1382     0306                     u1871:
  1383     0306  2B12               	goto	l1392
  1384     0307                     u1870:
  1385     0307                     l1390:
  1386     0307  086D               	movf	___fladd@grs,w
  1387     0308  1683               	bsf	3,5	;RP0=1, select bank1
  1388     0309  1303               	bcf	3,6	;RP1=0, select bank1
  1389     030A  00A0               	movwf	??___fladd^(0+128)
  1390     030B  1003               	clrc
  1391     030C  0C20               	rrf	??___fladd^(0+128),w
  1392     030D  3801               	iorlw	1
  1393     030E  1283               	bcf	3,5	;RP0=0, select bank0
  1394     030F  1303               	bcf	3,6	;RP1=0, select bank0
  1395     0310  00ED               	movwf	___fladd@grs
  1396     0311  2B14               	goto	l1394
  1397     0312                     l1392:
  1398     0312  1003               	clrc
  1399     0313  0CED               	rrf	___fladd@grs,f
  1400     0314                     l1394:
  1401     0314  1C62               	btfss	___fladd@b,0
  1402     0315  2B17               	goto	u1881
  1403     0316  2B18               	goto	u1880
  1404     0317                     u1881:
  1405     0317  2B19               	goto	l1398
  1406     0318                     u1880:
  1407     0318                     l1396:
  1408     0318  17ED               	bsf	___fladd@grs,7
  1409     0319                     l1398:
  1410     0319  3001               	movlw	1
  1411     031A  1683               	bsf	3,5	;RP0=1, select bank1
  1412     031B  1303               	bcf	3,6	;RP1=0, select bank1
  1413     031C  00A0               	movwf	??___fladd^(0+128)
  1414     031D                     u1895:
  1415     031D  1283               	bcf	3,5	;RP0=0, select bank0
  1416     031E  1303               	bcf	3,6	;RP1=0, select bank0
  1417     031F  0D65               	rlf	___fladd@b+3,w
  1418     0320  0CE5               	rrf	___fladd@b+3,f
  1419     0321  0CE4               	rrf	___fladd@b+2,f
  1420     0322  0CE3               	rrf	___fladd@b+1,f
  1421     0323  0CE2               	rrf	___fladd@b,f
  1422     0324  1683               	bsf	3,5	;RP0=1, select bank1
  1423     0325  1303               	bcf	3,6	;RP1=0, select bank1
  1424     0326  0BA0               	decfsz	(??___fladd^(0+128))& (0+127),f
  1425     0327  2B1D               	goto	u1895
  1426     0328                     l1400:
  1427     0328  3001               	movlw	1
  1428     0329  1283               	bcf	3,5	;RP0=0, select bank0
  1429     032A  1303               	bcf	3,6	;RP1=0, select bank0
  1430     032B  07EC               	addwf	___fladd@bexp,f
  1431     032C  2C1D               	goto	l1438
  1432     032D                     l1402:
  1433     032D  0865               	movf	___fladd@b+3,w
  1434     032E  3A80               	xorlw	128
  1435     032F  00FF               	movwf	btemp+1
  1436     0330  0869               	movf	___fladd@a+3,w
  1437     0331  3A80               	xorlw	128
  1438     0332  027F               	subwf	btemp+1,w
  1439     0333  1D03               	skipz
  1440     0334  2B3F               	goto	u1903
  1441     0335  0868               	movf	___fladd@a+2,w
  1442     0336  0264               	subwf	___fladd@b+2,w
  1443     0337  1D03               	skipz
  1444     0338  2B3F               	goto	u1903
  1445     0339  0867               	movf	___fladd@a+1,w
  1446     033A  0263               	subwf	___fladd@b+1,w
  1447     033B  1D03               	skipz
  1448     033C  2B3F               	goto	u1903
  1449     033D  0866               	movf	___fladd@a,w
  1450     033E  0262               	subwf	___fladd@b,w
  1451     033F                     u1903:
  1452     033F  1803               	skipnc
  1453     0340  2B42               	goto	u1901
  1454     0341  2B43               	goto	u1900
  1455     0342                     u1901:
  1456     0342  2BCE               	goto	l1414
  1457     0343                     u1900:
  1458     0343                     l1404:
  1459     0343  30FF               	movlw	255
  1460     0344  1683               	bsf	3,5	;RP0=1, select bank1
  1461     0345  1303               	bcf	3,6	;RP1=0, select bank1
  1462     0346  00A0               	movwf	??___fladd^(0+128)
  1463     0347  30FF               	movlw	255
  1464     0348  00A1               	movwf	(??___fladd^(0+128)+1)
  1465     0349  30FF               	movlw	255
  1466     034A  00A2               	movwf	(??___fladd^(0+128)+2)
  1467     034B  30FF               	movlw	255
  1468     034C  00A3               	movwf	(??___fladd^(0+128)+3)
  1469     034D  1283               	bcf	3,5	;RP0=0, select bank0
  1470     034E  1303               	bcf	3,6	;RP1=0, select bank0
  1471     034F  0866               	movf	___fladd@a,w
  1472     0350  1683               	bsf	3,5	;RP0=1, select bank1
  1473     0351  1303               	bcf	3,6	;RP1=0, select bank1
  1474     0352  00A4               	movwf	(??___fladd+4)^(0+128)
  1475     0353  1283               	bcf	3,5	;RP0=0, select bank0
  1476     0354  1303               	bcf	3,6	;RP1=0, select bank0
  1477     0355  0867               	movf	___fladd@a+1,w
  1478     0356  1683               	bsf	3,5	;RP0=1, select bank1
  1479     0357  1303               	bcf	3,6	;RP1=0, select bank1
  1480     0358  00A5               	movwf	((??___fladd+4)^(0+128)+1)
  1481     0359  1283               	bcf	3,5	;RP0=0, select bank0
  1482     035A  1303               	bcf	3,6	;RP1=0, select bank0
  1483     035B  0868               	movf	___fladd@a+2,w
  1484     035C  1683               	bsf	3,5	;RP0=1, select bank1
  1485     035D  1303               	bcf	3,6	;RP1=0, select bank1
  1486     035E  00A6               	movwf	((??___fladd+4)^(0+128)+2)
  1487     035F  1283               	bcf	3,5	;RP0=0, select bank0
  1488     0360  1303               	bcf	3,6	;RP1=0, select bank0
  1489     0361  0869               	movf	___fladd@a+3,w
  1490     0362  1683               	bsf	3,5	;RP0=1, select bank1
  1491     0363  1303               	bcf	3,6	;RP1=0, select bank1
  1492     0364  00A7               	movwf	((??___fladd+4)^(0+128)+3)
  1493     0365  1283               	bcf	3,5	;RP0=0, select bank0
  1494     0366  1303               	bcf	3,6	;RP1=0, select bank0
  1495     0367  0862               	movf	___fladd@b,w
  1496     0368  1683               	bsf	3,5	;RP0=1, select bank1
  1497     0369  1303               	bcf	3,6	;RP1=0, select bank1
  1498     036A  02A4               	subwf	(??___fladd+4)^(0+128),f
  1499     036B  1283               	bcf	3,5	;RP0=0, select bank0
  1500     036C  1303               	bcf	3,6	;RP1=0, select bank0
  1501     036D  0863               	movf	___fladd@b+1,w
  1502     036E  1C03               	skipc
  1503     036F  0F63               	incfsz	___fladd@b+1,w
  1504     0370  2B72               	goto	u1911
  1505     0371  2B75               	goto	u1912
  1506     0372                     u1911:
  1507     0372  1683               	bsf	3,5	;RP0=1, select bank1
  1508     0373  1303               	bcf	3,6	;RP1=0, select bank1
  1509     0374  02A5               	subwf	((??___fladd+4)^(0+128)+1),f
  1510     0375                     u1912:
  1511     0375  1283               	bcf	3,5	;RP0=0, select bank0
  1512     0376  1303               	bcf	3,6	;RP1=0, select bank0
  1513     0377  0864               	movf	___fladd@b+2,w
  1514     0378  1C03               	skipc
  1515     0379  0F64               	incfsz	___fladd@b+2,w
  1516     037A  2B7C               	goto	u1913
  1517     037B  2B7F               	goto	u1914
  1518     037C                     u1913:
  1519     037C  1683               	bsf	3,5	;RP0=1, select bank1
  1520     037D  1303               	bcf	3,6	;RP1=0, select bank1
  1521     037E  02A6               	subwf	((??___fladd+4)^(0+128)+2),f
  1522     037F                     u1914:
  1523     037F  1283               	bcf	3,5	;RP0=0, select bank0
  1524     0380  1303               	bcf	3,6	;RP1=0, select bank0
  1525     0381  0865               	movf	___fladd@b+3,w
  1526     0382  1C03               	skipc
  1527     0383  0F65               	incfsz	___fladd@b+3,w
  1528     0384  2B86               	goto	u1915
  1529     0385  2B89               	goto	u1916
  1530     0386                     u1915:
  1531     0386  1683               	bsf	3,5	;RP0=1, select bank1
  1532     0387  1303               	bcf	3,6	;RP1=0, select bank1
  1533     0388  02A7               	subwf	((??___fladd+4)^(0+128)+3),f
  1534     0389                     u1916:
  1535     0389  1283               	bcf	3,5	;RP0=0, select bank0
  1536     038A  1303               	bcf	3,6	;RP1=0, select bank0
  1537     038B  1683               	bsf	3,5	;RP0=1, select bank1
  1538     038C  1303               	bcf	3,6	;RP1=0, select bank1
  1539     038D  0824               	movf	(??___fladd+4)^(0+128),w
  1540     038E  07A0               	addwf	??___fladd^(0+128),f
  1541     038F  0825               	movf	(??___fladd+5)^(0+128),w
  1542     0390  1803               	skipnc
  1543     0391  0F25               	incfsz	(??___fladd+5)^(0+128),w
  1544     0392  2B94               	goto	u1920
  1545     0393  2B95               	goto	u1921
  1546     0394                     u1920:
  1547     0394  07A1               	addwf	(??___fladd^(0+128)+1),f
  1548     0395                     u1921:
  1549     0395  0826               	movf	(??___fladd+6)^(0+128),w
  1550     0396  1803               	skipnc
  1551     0397  0F26               	incfsz	(??___fladd+6)^(0+128),w
  1552     0398  2B9A               	goto	u1922
  1553     0399  2B9B               	goto	u1923
  1554     039A                     u1922:
  1555     039A  07A2               	addwf	(??___fladd^(0+128)+2),f
  1556     039B                     u1923:
  1557     039B  0827               	movf	(??___fladd+7)^(0+128),w
  1558     039C  1803               	skipnc
  1559     039D  0A27               	incf	(??___fladd+7)^(0+128),w
  1560     039E  07A3               	addwf	(??___fladd^(0+128)+3),f
  1561     039F  0823               	movf	(??___fladd+3)^(0+128),w
  1562     03A0  1283               	bcf	3,5	;RP0=0, select bank0
  1563     03A1  1303               	bcf	3,6	;RP1=0, select bank0
  1564     03A2  00E5               	movwf	___fladd@b+3
  1565     03A3  1683               	bsf	3,5	;RP0=1, select bank1
  1566     03A4  1303               	bcf	3,6	;RP1=0, select bank1
  1567     03A5  0822               	movf	(??___fladd+2)^(0+128),w
  1568     03A6  1283               	bcf	3,5	;RP0=0, select bank0
  1569     03A7  1303               	bcf	3,6	;RP1=0, select bank0
  1570     03A8  00E4               	movwf	___fladd@b+2
  1571     03A9  1683               	bsf	3,5	;RP0=1, select bank1
  1572     03AA  1303               	bcf	3,6	;RP1=0, select bank1
  1573     03AB  0821               	movf	(??___fladd+1)^(0+128),w
  1574     03AC  1283               	bcf	3,5	;RP0=0, select bank0
  1575     03AD  1303               	bcf	3,6	;RP1=0, select bank0
  1576     03AE  00E3               	movwf	___fladd@b+1
  1577     03AF  1683               	bsf	3,5	;RP0=1, select bank1
  1578     03B0  1303               	bcf	3,6	;RP1=0, select bank1
  1579     03B1  0820               	movf	??___fladd^(0+128),w
  1580     03B2  1283               	bcf	3,5	;RP0=0, select bank0
  1581     03B3  1303               	bcf	3,6	;RP1=0, select bank0
  1582     03B4  00E2               	movwf	___fladd@b
  1583     03B5                     l1406:
  1584     03B5  3080               	movlw	128
  1585     03B6  06EA               	xorwf	___fladd@signs,f
  1586     03B7                     l1408:
  1587     03B7  036D               	decf	___fladd@grs,w
  1588     03B8  3AFF               	xorlw	255
  1589     03B9  00ED               	movwf	___fladd@grs
  1590     03BA                     l1410:
  1591     03BA  086D               	movf	___fladd@grs,w
  1592     03BB  1D03               	btfss	3,2
  1593     03BC  2BBE               	goto	u1931
  1594     03BD  2BBF               	goto	u1930
  1595     03BE                     u1931:
  1596     03BE  2BDC               	goto	l444
  1597     03BF                     u1930:
  1598     03BF                     l1412:
  1599     03BF  3001               	movlw	1
  1600     03C0  07E2               	addwf	___fladd@b,f
  1601     03C1  3000               	movlw	0
  1602     03C2  1803               	skipnc
  1603     03C3  3001               	movlw	1
  1604     03C4  07E3               	addwf	___fladd@b+1,f
  1605     03C5  3000               	movlw	0
  1606     03C6  1803               	skipnc
  1607     03C7  3001               	movlw	1
  1608     03C8  07E4               	addwf	___fladd@b+2,f
  1609     03C9  3000               	movlw	0
  1610     03CA  1803               	skipnc
  1611     03CB  3001               	movlw	1
  1612     03CC  07E5               	addwf	___fladd@b+3,f
  1613     03CD  2BDC               	goto	l444
  1614     03CE                     l1414:
  1615     03CE  0866               	movf	___fladd@a,w
  1616     03CF  02E2               	subwf	___fladd@b,f
  1617     03D0  0867               	movf	___fladd@a+1,w
  1618     03D1  1C03               	skipc
  1619     03D2  0F67               	incfsz	___fladd@a+1,w
  1620     03D3  02E3               	subwf	___fladd@b+1,f
  1621     03D4  0868               	movf	___fladd@a+2,w
  1622     03D5  1C03               	skipc
  1623     03D6  0F68               	incfsz	___fladd@a+2,w
  1624     03D7  02E4               	subwf	___fladd@b+2,f
  1625     03D8  0869               	movf	___fladd@a+3,w
  1626     03D9  1C03               	skipc
  1627     03DA  0F69               	incfsz	___fladd@a+3,w
  1628     03DB  02E5               	subwf	___fladd@b+3,f
  1629     03DC                     l444:
  1630     03DC  0865               	movf	___fladd@b+3,w
  1631     03DD  0464               	iorwf	___fladd@b+2,w
  1632     03DE  0463               	iorwf	___fladd@b+1,w
  1633     03DF  0462               	iorwf	___fladd@b,w
  1634     03E0  1D03               	skipz
  1635     03E1  2BE3               	goto	u1941
  1636     03E2  2BE4               	goto	u1940
  1637     03E3                     u1941:
  1638     03E3  2C19               	goto	l1436
  1639     03E4                     u1940:
  1640     03E4                     l1416:
  1641     03E4  086D               	movf	___fladd@grs,w
  1642     03E5  1D03               	btfss	3,2
  1643     03E6  2BE8               	goto	u1951
  1644     03E7  2BE9               	goto	u1950
  1645     03E8                     u1951:
  1646     03E8  2C19               	goto	l1436
  1647     03E9                     u1950:
  1648     03E9                     l1418:
  1649     03E9  3000               	movlw	0
  1650     03EA  00E5               	movwf	?___fladd+3
  1651     03EB  3000               	movlw	0
  1652     03EC  00E4               	movwf	?___fladd+2
  1653     03ED  3000               	movlw	0
  1654     03EE  00E3               	movwf	?___fladd+1
  1655     03EF  3000               	movlw	0
  1656     03F0  00E2               	movwf	?___fladd
  1657     03F1  2CB1               	goto	l436
  1658     03F2                     l1422:
  1659     03F2  3001               	movlw	1
  1660     03F3  1683               	bsf	3,5	;RP0=1, select bank1
  1661     03F4  1303               	bcf	3,6	;RP1=0, select bank1
  1662     03F5  00A0               	movwf	??___fladd^(0+128)
  1663     03F6                     u1965:
  1664     03F6  1003               	clrc
  1665     03F7  1283               	bcf	3,5	;RP0=0, select bank0
  1666     03F8  1303               	bcf	3,6	;RP1=0, select bank0
  1667     03F9  0DE2               	rlf	___fladd@b,f
  1668     03FA  0DE3               	rlf	___fladd@b+1,f
  1669     03FB  0DE4               	rlf	___fladd@b+2,f
  1670     03FC  0DE5               	rlf	___fladd@b+3,f
  1671     03FD  1683               	bsf	3,5	;RP0=1, select bank1
  1672     03FE  1303               	bcf	3,6	;RP1=0, select bank1
  1673     03FF  0BA0               	decfsz	??___fladd^(0+128),f
  1674     0400  2BF6               	goto	u1965
  1675     0401                     l1424:
  1676     0401  1283               	bcf	3,5	;RP0=0, select bank0
  1677     0402  1303               	bcf	3,6	;RP1=0, select bank0
  1678     0403  1FED               	btfss	___fladd@grs,7
  1679     0404  2C06               	goto	u1971
  1680     0405  2C07               	goto	u1970
  1681     0406                     u1971:
  1682     0406  2C08               	goto	l448
  1683     0407                     u1970:
  1684     0407                     l1426:
  1685     0407  1462               	bsf	___fladd@b,0
  1686     0408                     l448:
  1687     0408  1C6D               	btfss	___fladd@grs,0
  1688     0409  2C0B               	goto	u1981
  1689     040A  2C0C               	goto	u1980
  1690     040B                     u1981:
  1691     040B  2C10               	goto	l1430
  1692     040C                     u1980:
  1693     040C                     l1428:
  1694     040C  1403               	setc
  1695     040D  0D6D               	rlf	___fladd@grs,w
  1696     040E  00ED               	movwf	___fladd@grs
  1697     040F  2C12               	goto	l1432
  1698     0410                     l1430:
  1699     0410  1003               	clrc
  1700     0411  0DED               	rlf	___fladd@grs,f
  1701     0412                     l1432:
  1702     0412  086C               	movf	___fladd@bexp,w
  1703     0413  1903               	btfsc	3,2
  1704     0414  2C16               	goto	u1991
  1705     0415  2C17               	goto	u1990
  1706     0416                     u1991:
  1707     0416  2C19               	goto	l1436
  1708     0417                     u1990:
  1709     0417                     l1434:
  1710     0417  3001               	movlw	1
  1711     0418  02EC               	subwf	___fladd@bexp,f
  1712     0419                     l1436:
  1713     0419  1FE4               	btfss	___fladd@b+2,7
  1714     041A  2C1C               	goto	u2001
  1715     041B  2C1D               	goto	u2000
  1716     041C                     u2001:
  1717     041C  2BF2               	goto	l1422
  1718     041D                     u2000:
  1719     041D                     l1438:
  1720     041D  01EB               	clrf	___fladd@aexp
  1721     041E                     l1440:
  1722     041E  1FED               	btfss	___fladd@grs,7
  1723     041F  2C21               	goto	u2011
  1724     0420  2C22               	goto	u2010
  1725     0421                     u2011:
  1726     0421  2C30               	goto	l1448
  1727     0422                     u2010:
  1728     0422                     l1442:
  1729     0422  086D               	movf	___fladd@grs,w
  1730     0423  397F               	andlw	127
  1731     0424  1903               	btfsc	3,2
  1732     0425  2C27               	goto	u2021
  1733     0426  2C28               	goto	u2020
  1734     0427                     u2021:
  1735     0427  2C2B               	goto	l454
  1736     0428                     u2020:
  1737     0428                     l1444:
  1738     0428  3001               	movlw	1
  1739     0429  00EB               	movwf	___fladd@aexp
  1740     042A  2C30               	goto	l1448
  1741     042B                     l454:
  1742     042B  1C62               	btfss	___fladd@b,0
  1743     042C  2C2E               	goto	u2031
  1744     042D  2C2F               	goto	u2030
  1745     042E                     u2031:
  1746     042E  2C30               	goto	l1448
  1747     042F                     u2030:
  1748     042F  2C28               	goto	l1444
  1749     0430                     l1448:
  1750     0430  086B               	movf	___fladd@aexp,w
  1751     0431  1903               	btfsc	3,2
  1752     0432  2C34               	goto	u2041
  1753     0433  2C35               	goto	u2040
  1754     0434                     u2041:
  1755     0434  2C83               	goto	l457
  1756     0435                     u2040:
  1757     0435                     l1450:
  1758     0435  3001               	movlw	1
  1759     0436  07E2               	addwf	___fladd@b,f
  1760     0437  3000               	movlw	0
  1761     0438  1803               	skipnc
  1762     0439  3001               	movlw	1
  1763     043A  07E3               	addwf	___fladd@b+1,f
  1764     043B  3000               	movlw	0
  1765     043C  1803               	skipnc
  1766     043D  3001               	movlw	1
  1767     043E  07E4               	addwf	___fladd@b+2,f
  1768     043F  3000               	movlw	0
  1769     0440  1803               	skipnc
  1770     0441  3001               	movlw	1
  1771     0442  07E5               	addwf	___fladd@b+3,f
  1772     0443                     l1452:
  1773     0443  1C65               	btfss	___fladd@b+3,0
  1774     0444  2C46               	goto	u2051
  1775     0445  2C47               	goto	u2050
  1776     0446                     u2051:
  1777     0446  2C83               	goto	l457
  1778     0447                     u2050:
  1779     0447                     l1454:
  1780     0447  0862               	movf	___fladd@b,w
  1781     0448  1683               	bsf	3,5	;RP0=1, select bank1
  1782     0449  1303               	bcf	3,6	;RP1=0, select bank1
  1783     044A  00A0               	movwf	??___fladd^(0+128)
  1784     044B  1283               	bcf	3,5	;RP0=0, select bank0
  1785     044C  1303               	bcf	3,6	;RP1=0, select bank0
  1786     044D  0863               	movf	___fladd@b+1,w
  1787     044E  1683               	bsf	3,5	;RP0=1, select bank1
  1788     044F  1303               	bcf	3,6	;RP1=0, select bank1
  1789     0450  00A1               	movwf	(??___fladd^(0+128)+1)
  1790     0451  1283               	bcf	3,5	;RP0=0, select bank0
  1791     0452  1303               	bcf	3,6	;RP1=0, select bank0
  1792     0453  0864               	movf	___fladd@b+2,w
  1793     0454  1683               	bsf	3,5	;RP0=1, select bank1
  1794     0455  1303               	bcf	3,6	;RP1=0, select bank1
  1795     0456  00A2               	movwf	(??___fladd^(0+128)+2)
  1796     0457  1283               	bcf	3,5	;RP0=0, select bank0
  1797     0458  1303               	bcf	3,6	;RP1=0, select bank0
  1798     0459  0865               	movf	___fladd@b+3,w
  1799     045A  1683               	bsf	3,5	;RP0=1, select bank1
  1800     045B  1303               	bcf	3,6	;RP1=0, select bank1
  1801     045C  00A3               	movwf	(??___fladd^(0+128)+3)
  1802     045D  3001               	movlw	1
  1803     045E  00A4               	movwf	(??___fladd+4)^(0+128)
  1804     045F                     u2065:
  1805     045F  0D23               	rlf	(??___fladd^(0+128)+3),w
  1806     0460  0CA3               	rrf	(??___fladd^(0+128)+3),f
  1807     0461  0CA2               	rrf	(??___fladd^(0+128)+2),f
  1808     0462  0CA1               	rrf	(??___fladd^(0+128)+1),f
  1809     0463  0CA0               	rrf	??___fladd^(0+128),f
  1810     0464                     u2060:
  1811     0464  0BA4               	decfsz	(??___fladd+4)^(0+128),f
  1812     0465  2C5F               	goto	u2065
  1813     0466  0823               	movf	(??___fladd+3)^(0+128),w
  1814     0467  1283               	bcf	3,5	;RP0=0, select bank0
  1815     0468  1303               	bcf	3,6	;RP1=0, select bank0
  1816     0469  00E5               	movwf	___fladd@b+3
  1817     046A  1683               	bsf	3,5	;RP0=1, select bank1
  1818     046B  1303               	bcf	3,6	;RP1=0, select bank1
  1819     046C  0822               	movf	(??___fladd+2)^(0+128),w
  1820     046D  1283               	bcf	3,5	;RP0=0, select bank0
  1821     046E  1303               	bcf	3,6	;RP1=0, select bank0
  1822     046F  00E4               	movwf	___fladd@b+2
  1823     0470  1683               	bsf	3,5	;RP0=1, select bank1
  1824     0471  1303               	bcf	3,6	;RP1=0, select bank1
  1825     0472  0821               	movf	(??___fladd+1)^(0+128),w
  1826     0473  1283               	bcf	3,5	;RP0=0, select bank0
  1827     0474  1303               	bcf	3,6	;RP1=0, select bank0
  1828     0475  00E3               	movwf	___fladd@b+1
  1829     0476  1683               	bsf	3,5	;RP0=1, select bank1
  1830     0477  1303               	bcf	3,6	;RP1=0, select bank1
  1831     0478  0820               	movf	??___fladd^(0+128),w
  1832     0479  1283               	bcf	3,5	;RP0=0, select bank0
  1833     047A  1303               	bcf	3,6	;RP1=0, select bank0
  1834     047B  00E2               	movwf	___fladd@b
  1835     047C  0A6C               	incf	___fladd@bexp,w
  1836     047D  1903               	btfsc	3,2
  1837     047E  2C80               	goto	u2071
  1838     047F  2C81               	goto	u2070
  1839     0480                     u2071:
  1840     0480  2C83               	goto	l457
  1841     0481                     u2070:
  1842     0481                     l1456:
  1843     0481  3001               	movlw	1
  1844     0482  07EC               	addwf	___fladd@bexp,f
  1845     0483                     l457:
  1846     0483  0A6C               	incf	___fladd@bexp,w
  1847     0484  1903               	btfsc	3,2
  1848     0485  2C87               	goto	u2081
  1849     0486  2C88               	goto	u2080
  1850     0487                     u2081:
  1851     0487  2C8D               	goto	l1460
  1852     0488                     u2080:
  1853     0488                     l1458:
  1854     0488  086C               	movf	___fladd@bexp,w
  1855     0489  1D03               	btfss	3,2
  1856     048A  2C8C               	goto	u2091
  1857     048B  2C8D               	goto	u2090
  1858     048C                     u2091:
  1859     048C  2C9B               	goto	l1466
  1860     048D                     u2090:
  1861     048D                     l1460:
  1862     048D  3000               	movlw	0
  1863     048E  00E5               	movwf	___fladd@b+3
  1864     048F  3000               	movlw	0
  1865     0490  00E4               	movwf	___fladd@b+2
  1866     0491  3000               	movlw	0
  1867     0492  00E3               	movwf	___fladd@b+1
  1868     0493  3000               	movlw	0
  1869     0494  00E2               	movwf	___fladd@b
  1870     0495                     l1462:
  1871     0495  086C               	movf	___fladd@bexp,w
  1872     0496  1D03               	btfss	3,2
  1873     0497  2C99               	goto	u2101
  1874     0498  2C9A               	goto	u2100
  1875     0499                     u2101:
  1876     0499  2C9B               	goto	l1466
  1877     049A                     u2100:
  1878     049A                     l1464:
  1879     049A  01EA               	clrf	___fladd@signs
  1880     049B                     l1466:
  1881     049B  1C6C               	btfss	___fladd@bexp,0
  1882     049C  2C9E               	goto	u2111
  1883     049D  2C9F               	goto	u2110
  1884     049E                     u2111:
  1885     049E  2CA1               	goto	l1470
  1886     049F                     u2110:
  1887     049F                     l1468:
  1888     049F  17E4               	bsf	___fladd@b+2,7
  1889     04A0  2CA3               	goto	l465
  1890     04A1                     l1470:
  1891     04A1  307F               	movlw	127
  1892     04A2  05E4               	andwf	___fladd@b+2,f
  1893     04A3                     l465:
  1894     04A3  086C               	movf	___fladd@bexp,w
  1895     04A4  1683               	bsf	3,5	;RP0=1, select bank1
  1896     04A5  1303               	bcf	3,6	;RP1=0, select bank1
  1897     04A6  00A0               	movwf	??___fladd^(0+128)
  1898     04A7  1003               	clrc
  1899     04A8  0C20               	rrf	??___fladd^(0+128),w
  1900     04A9  1283               	bcf	3,5	;RP0=0, select bank0
  1901     04AA  1303               	bcf	3,6	;RP1=0, select bank0
  1902     04AB  00E5               	movwf	___fladd@b+3
  1903     04AC                     l1472:
  1904     04AC  1FEA               	btfss	___fladd@signs,7
  1905     04AD  2CAF               	goto	u2121
  1906     04AE  2CB0               	goto	u2120
  1907     04AF                     u2121:
  1908     04AF  2CB1               	goto	l466
  1909     04B0                     u2120:
  1910     04B0                     l1474:
  1911     04B0  17E5               	bsf	___fladd@b+3,7
  1912     04B1                     l466:
  1913     04B1                     l436:
  1914     04B1  0008               	return
  1915     04B2                     __end_of___fladd:
  1916                           
  1917                           	psect	text4
  1918     0EF3                     __ptext4:	
  1919 ;; *************** function _PWM_SetDutyCycles *****************
  1920 ;; Defined at:
  1921 ;;		line 79 in file "main.c"
  1922 ;; Parameters:    Size  Location     Type
  1923 ;;  duty            1    wreg     unsigned char 
  1924 ;; Auto vars:     Size  Location     Type
  1925 ;;  duty            1   24[BANK1 ] unsigned char 
  1926 ;;  duty_period     4   20[BANK1 ] float 
  1927 ;;  tempreg         2   25[BANK1 ] int 
  1928 ;; Return value:  Size  Location     Type
  1929 ;;                  1    wreg      void 
  1930 ;; Registers used:
  1931 ;;		wreg, status,2, status,0, btemp+1, pclath, cstack
  1932 ;; Tracked objects:
  1933 ;;		On entry : 0/0
  1934 ;;		On exit  : 0/0
  1935 ;;		Unchanged: 0/0
  1936 ;; Data sizes:     COMMON   BANK0   BANK1   BANK3   BANK2
  1937 ;;      Params:         0       0       0       0       0
  1938 ;;      Locals:         0       0       7       0       0
  1939 ;;      Temps:          0       0       4       0       0
  1940 ;;      Totals:         0       0      11       0       0
  1941 ;;Total ram usage:       11 bytes
  1942 ;; Hardware stack levels used: 1
  1943 ;; Hardware stack levels required when called: 2
  1944 ;; This function calls:
  1945 ;;		___fldiv
  1946 ;;		___flmul
  1947 ;;		___fltol
  1948 ;;		___xxtofl
  1949 ;; This function is called by:
  1950 ;;		_main
  1951 ;; This function uses a non-reentrant model
  1952 ;;
  1953                           
  1954     0EF3                     _PWM_SetDutyCycles:	
  1955                           ;psect for function _PWM_SetDutyCycles
  1956                           
  1957                           
  1958                           ;incstack = 0
  1959                           ; Regs used in _PWM_SetDutyCycles: [wreg+status,2+status,0+btemp+1+pclath+cstack]
  1960                           ;PWM_SetDutyCycles@duty stored from wreg
  1961     0EF3  1683               	bsf	3,5	;RP0=1, select bank1
  1962     0EF4  1303               	bcf	3,6	;RP1=0, select bank1
  1963     0EF5  00B8               	movwf	PWM_SetDutyCycles@duty^(0+128)
  1964     0EF6                     l1816:
  1965                           
  1966                           ;main.c: 79: void PWM_SetDutyCycles(uint8_t duty);main.c: 80: {;main.c: 81:     float du
      +                          ty_period = PWM_PERIOD*duty/100;
  1967     0EF6  3042               	movlw	66
  1968     0EF7  1283               	bcf	3,5	;RP0=0, select bank0
  1969     0EF8  1303               	bcf	3,6	;RP1=0, select bank0
  1970     0EF9  00CB               	movwf	___fldiv@a+3
  1971     0EFA  30C8               	movlw	200
  1972     0EFB  00CA               	movwf	___fldiv@a+2
  1973     0EFC  3000               	movlw	0
  1974     0EFD  00C9               	movwf	___fldiv@a+1
  1975     0EFE  3000               	movlw	0
  1976     0EFF  00C8               	movwf	___fldiv@a
  1977     0F00  1683               	bsf	3,5	;RP0=1, select bank1
  1978     0F01  1303               	bcf	3,6	;RP1=0, select bank1
  1979     0F02  083E               	movf	(_PWM_PERIOD+3)^(0+128),w
  1980     0F03  1283               	bcf	3,5	;RP0=0, select bank0
  1981     0F04  1303               	bcf	3,6	;RP1=0, select bank0
  1982     0F05  00B1               	movwf	___flmul@b+3
  1983     0F06  1683               	bsf	3,5	;RP0=1, select bank1
  1984     0F07  1303               	bcf	3,6	;RP1=0, select bank1
  1985     0F08  083D               	movf	(_PWM_PERIOD+2)^(0+128),w
  1986     0F09  1283               	bcf	3,5	;RP0=0, select bank0
  1987     0F0A  1303               	bcf	3,6	;RP1=0, select bank0
  1988     0F0B  00B0               	movwf	___flmul@b+2
  1989     0F0C  1683               	bsf	3,5	;RP0=1, select bank1
  1990     0F0D  1303               	bcf	3,6	;RP1=0, select bank1
  1991     0F0E  083C               	movf	(_PWM_PERIOD+1)^(0+128),w
  1992     0F0F  1283               	bcf	3,5	;RP0=0, select bank0
  1993     0F10  1303               	bcf	3,6	;RP1=0, select bank0
  1994     0F11  00AF               	movwf	___flmul@b+1
  1995     0F12  1683               	bsf	3,5	;RP0=1, select bank1
  1996     0F13  1303               	bcf	3,6	;RP1=0, select bank1
  1997     0F14  083B               	movf	_PWM_PERIOD^(0+128),w
  1998     0F15  1283               	bcf	3,5	;RP0=0, select bank0
  1999     0F16  1303               	bcf	3,6	;RP1=0, select bank0
  2000     0F17  00AE               	movwf	___flmul@b
  2001     0F18  1683               	bsf	3,5	;RP0=1, select bank1
  2002     0F19  1303               	bcf	3,6	;RP1=0, select bank1
  2003     0F1A  0838               	movf	PWM_SetDutyCycles@duty^(0+128),w
  2004     0F1B  00B0               	movwf	??_PWM_SetDutyCycles^(0+128)
  2005     0F1C  01B1               	clrf	(??_PWM_SetDutyCycles^(0+128)+1)
  2006     0F1D  01B2               	clrf	(??_PWM_SetDutyCycles^(0+128)+2)
  2007     0F1E  01B3               	clrf	(??_PWM_SetDutyCycles^(0+128)+3)
  2008     0F1F  0833               	movf	(??_PWM_SetDutyCycles+3)^(0+128),w
  2009     0F20  1283               	bcf	3,5	;RP0=0, select bank0
  2010     0F21  1303               	bcf	3,6	;RP1=0, select bank0
  2011     0F22  00A3               	movwf	___xxtofl@val+3
  2012     0F23  1683               	bsf	3,5	;RP0=1, select bank1
  2013     0F24  1303               	bcf	3,6	;RP1=0, select bank1
  2014     0F25  0832               	movf	(??_PWM_SetDutyCycles+2)^(0+128),w
  2015     0F26  1283               	bcf	3,5	;RP0=0, select bank0
  2016     0F27  1303               	bcf	3,6	;RP1=0, select bank0
  2017     0F28  00A2               	movwf	___xxtofl@val+2
  2018     0F29  1683               	bsf	3,5	;RP0=1, select bank1
  2019     0F2A  1303               	bcf	3,6	;RP1=0, select bank1
  2020     0F2B  0831               	movf	(??_PWM_SetDutyCycles+1)^(0+128),w
  2021     0F2C  1283               	bcf	3,5	;RP0=0, select bank0
  2022     0F2D  1303               	bcf	3,6	;RP1=0, select bank0
  2023     0F2E  00A1               	movwf	___xxtofl@val+1
  2024     0F2F  1683               	bsf	3,5	;RP0=1, select bank1
  2025     0F30  1303               	bcf	3,6	;RP1=0, select bank1
  2026     0F31  0830               	movf	??_PWM_SetDutyCycles^(0+128),w
  2027     0F32  1283               	bcf	3,5	;RP0=0, select bank0
  2028     0F33  1303               	bcf	3,6	;RP1=0, select bank0
  2029     0F34  00A0               	movwf	___xxtofl@val
  2030     0F35  3001               	movlw	1
  2031     0F36  120A  158A  2576  120A  158A  	fcall	___xxtofl
  2032     0F3B  1283               	bcf	3,5	;RP0=0, select bank0
  2033     0F3C  1303               	bcf	3,6	;RP1=0, select bank0
  2034     0F3D  0823               	movf	?___xxtofl+3,w
  2035     0F3E  00B5               	movwf	___flmul@a+3
  2036     0F3F  0822               	movf	?___xxtofl+2,w
  2037     0F40  00B4               	movwf	___flmul@a+2
  2038     0F41  0821               	movf	?___xxtofl+1,w
  2039     0F42  00B3               	movwf	___flmul@a+1
  2040     0F43  0820               	movf	?___xxtofl,w
  2041     0F44  00B2               	movwf	___flmul@a
  2042     0F45  120A  118A  24B2  120A  158A  	fcall	___flmul
  2043     0F4A  1283               	bcf	3,5	;RP0=0, select bank0
  2044     0F4B  1303               	bcf	3,6	;RP1=0, select bank0
  2045     0F4C  0831               	movf	?___flmul+3,w
  2046     0F4D  00CF               	movwf	___fldiv@b+3
  2047     0F4E  0830               	movf	?___flmul+2,w
  2048     0F4F  00CE               	movwf	___fldiv@b+2
  2049     0F50  082F               	movf	?___flmul+1,w
  2050     0F51  00CD               	movwf	___fldiv@b+1
  2051     0F52  082E               	movf	?___flmul,w
  2052     0F53  00CC               	movwf	___fldiv@b
  2053     0F54  120A  118A  2016  120A  158A  	fcall	___fldiv
  2054     0F59  1283               	bcf	3,5	;RP0=0, select bank0
  2055     0F5A  1303               	bcf	3,6	;RP1=0, select bank0
  2056     0F5B  084B               	movf	?___fldiv+3,w
  2057     0F5C  1683               	bsf	3,5	;RP0=1, select bank1
  2058     0F5D  1303               	bcf	3,6	;RP1=0, select bank1
  2059     0F5E  00B7               	movwf	(PWM_SetDutyCycles@duty_period+3)^(0+128)
  2060     0F5F  1283               	bcf	3,5	;RP0=0, select bank0
  2061     0F60  1303               	bcf	3,6	;RP1=0, select bank0
  2062     0F61  084A               	movf	?___fldiv+2,w
  2063     0F62  1683               	bsf	3,5	;RP0=1, select bank1
  2064     0F63  1303               	bcf	3,6	;RP1=0, select bank1
  2065     0F64  00B6               	movwf	(PWM_SetDutyCycles@duty_period+2)^(0+128)
  2066     0F65  1283               	bcf	3,5	;RP0=0, select bank0
  2067     0F66  1303               	bcf	3,6	;RP1=0, select bank0
  2068     0F67  0849               	movf	?___fldiv+1,w
  2069     0F68  1683               	bsf	3,5	;RP0=1, select bank1
  2070     0F69  1303               	bcf	3,6	;RP1=0, select bank1
  2071     0F6A  00B5               	movwf	(PWM_SetDutyCycles@duty_period+1)^(0+128)
  2072     0F6B  1283               	bcf	3,5	;RP0=0, select bank0
  2073     0F6C  1303               	bcf	3,6	;RP1=0, select bank0
  2074     0F6D  0848               	movf	?___fldiv,w
  2075     0F6E  1683               	bsf	3,5	;RP0=1, select bank1
  2076     0F6F  1303               	bcf	3,6	;RP1=0, select bank1
  2077     0F70  00B4               	movwf	PWM_SetDutyCycles@duty_period^(0+128)
  2078                           
  2079                           ;main.c: 83:     int tempreg = (int)((duty_period * 2000000) / 16);
  2080     0F71  0837               	movf	(PWM_SetDutyCycles@duty_period+3)^(0+128),w
  2081     0F72  1283               	bcf	3,5	;RP0=0, select bank0
  2082     0F73  1303               	bcf	3,6	;RP1=0, select bank0
  2083     0F74  00B5               	movwf	___flmul@a+3
  2084     0F75  1683               	bsf	3,5	;RP0=1, select bank1
  2085     0F76  1303               	bcf	3,6	;RP1=0, select bank1
  2086     0F77  0836               	movf	(PWM_SetDutyCycles@duty_period+2)^(0+128),w
  2087     0F78  1283               	bcf	3,5	;RP0=0, select bank0
  2088     0F79  1303               	bcf	3,6	;RP1=0, select bank0
  2089     0F7A  00B4               	movwf	___flmul@a+2
  2090     0F7B  1683               	bsf	3,5	;RP0=1, select bank1
  2091     0F7C  1303               	bcf	3,6	;RP1=0, select bank1
  2092     0F7D  0835               	movf	(PWM_SetDutyCycles@duty_period+1)^(0+128),w
  2093     0F7E  1283               	bcf	3,5	;RP0=0, select bank0
  2094     0F7F  1303               	bcf	3,6	;RP1=0, select bank0
  2095     0F80  00B3               	movwf	___flmul@a+1
  2096     0F81  1683               	bsf	3,5	;RP0=1, select bank1
  2097     0F82  1303               	bcf	3,6	;RP1=0, select bank1
  2098     0F83  0834               	movf	PWM_SetDutyCycles@duty_period^(0+128),w
  2099     0F84  1283               	bcf	3,5	;RP0=0, select bank0
  2100     0F85  1303               	bcf	3,6	;RP1=0, select bank0
  2101     0F86  00B2               	movwf	___flmul@a
  2102     0F87  3049               	movlw	73
  2103     0F88  00B1               	movwf	___flmul@b+3
  2104     0F89  30F4               	movlw	244
  2105     0F8A  00B0               	movwf	___flmul@b+2
  2106     0F8B  3024               	movlw	36
  2107     0F8C  00AF               	movwf	___flmul@b+1
  2108     0F8D  3000               	movlw	0
  2109     0F8E  00AE               	movwf	___flmul@b
  2110     0F8F  120A  118A  24B2  120A  158A  	fcall	___flmul
  2111     0F94  1283               	bcf	3,5	;RP0=0, select bank0
  2112     0F95  1303               	bcf	3,6	;RP1=0, select bank0
  2113     0F96  0831               	movf	?___flmul+3,w
  2114     0F97  00CF               	movwf	___fldiv@b+3
  2115     0F98  0830               	movf	?___flmul+2,w
  2116     0F99  00CE               	movwf	___fldiv@b+2
  2117     0F9A  082F               	movf	?___flmul+1,w
  2118     0F9B  00CD               	movwf	___fldiv@b+1
  2119     0F9C  082E               	movf	?___flmul,w
  2120     0F9D  00CC               	movwf	___fldiv@b
  2121     0F9E  3041               	movlw	65
  2122     0F9F  00CB               	movwf	___fldiv@a+3
  2123     0FA0  3080               	movlw	128
  2124     0FA1  00CA               	movwf	___fldiv@a+2
  2125     0FA2  3000               	movlw	0
  2126     0FA3  00C9               	movwf	___fldiv@a+1
  2127     0FA4  3000               	movlw	0
  2128     0FA5  00C8               	movwf	___fldiv@a
  2129     0FA6  120A  118A  2016  120A  158A  	fcall	___fldiv
  2130     0FAB  1283               	bcf	3,5	;RP0=0, select bank0
  2131     0FAC  1303               	bcf	3,6	;RP1=0, select bank0
  2132     0FAD  084B               	movf	?___fldiv+3,w
  2133     0FAE  1683               	bsf	3,5	;RP0=1, select bank1
  2134     0FAF  1303               	bcf	3,6	;RP1=0, select bank1
  2135     0FB0  00AB               	movwf	(___fltol@f1+3)^(0+128)
  2136     0FB1  1283               	bcf	3,5	;RP0=0, select bank0
  2137     0FB2  1303               	bcf	3,6	;RP1=0, select bank0
  2138     0FB3  084A               	movf	?___fldiv+2,w
  2139     0FB4  1683               	bsf	3,5	;RP0=1, select bank1
  2140     0FB5  1303               	bcf	3,6	;RP1=0, select bank1
  2141     0FB6  00AA               	movwf	(___fltol@f1+2)^(0+128)
  2142     0FB7  1283               	bcf	3,5	;RP0=0, select bank0
  2143     0FB8  1303               	bcf	3,6	;RP1=0, select bank0
  2144     0FB9  0849               	movf	?___fldiv+1,w
  2145     0FBA  1683               	bsf	3,5	;RP0=1, select bank1
  2146     0FBB  1303               	bcf	3,6	;RP1=0, select bank1
  2147     0FBC  00A9               	movwf	(___fltol@f1+1)^(0+128)
  2148     0FBD  1283               	bcf	3,5	;RP0=0, select bank0
  2149     0FBE  1303               	bcf	3,6	;RP1=0, select bank0
  2150     0FBF  0848               	movf	?___fldiv,w
  2151     0FC0  1683               	bsf	3,5	;RP0=1, select bank1
  2152     0FC1  1303               	bcf	3,6	;RP1=0, select bank1
  2153     0FC2  00A8               	movwf	___fltol@f1^(0+128)
  2154     0FC3  120A  158A  24EA  120A  158A  	fcall	___fltol
  2155     0FC8  1683               	bsf	3,5	;RP0=1, select bank1
  2156     0FC9  1303               	bcf	3,6	;RP1=0, select bank1
  2157     0FCA  0829               	movf	(?___fltol+1)^(0+128),w
  2158     0FCB  00BA               	movwf	(PWM_SetDutyCycles@tempreg+1)^(0+128)
  2159     0FCC  0828               	movf	?___fltol^(0+128),w
  2160     0FCD  00B9               	movwf	PWM_SetDutyCycles@tempreg^(0+128)
  2161     0FCE                     l1818:
  2162                           
  2163                           ;main.c: 85:     CCPR1L = tempreg >> 2;
  2164     0FCE  083A               	movf	(PWM_SetDutyCycles@tempreg+1)^(0+128),w
  2165     0FCF  00B1               	movwf	(??_PWM_SetDutyCycles^(0+128)+1)
  2166     0FD0  0839               	movf	PWM_SetDutyCycles@tempreg^(0+128),w
  2167     0FD1  00B0               	movwf	??_PWM_SetDutyCycles^(0+128)
  2168     0FD2  0D31               	rlf	(??_PWM_SetDutyCycles^(0+128)+1),w
  2169     0FD3  0CB1               	rrf	(??_PWM_SetDutyCycles^(0+128)+1),f
  2170     0FD4  0CB0               	rrf	??_PWM_SetDutyCycles^(0+128),f
  2171     0FD5  0D31               	rlf	(??_PWM_SetDutyCycles^(0+128)+1),w
  2172     0FD6  0CB1               	rrf	(??_PWM_SetDutyCycles^(0+128)+1),f
  2173     0FD7  0CB0               	rrf	??_PWM_SetDutyCycles^(0+128),f
  2174     0FD8  0830               	movf	??_PWM_SetDutyCycles^(0+128),w
  2175     0FD9  1283               	bcf	3,5	;RP0=0, select bank0
  2176     0FDA  1303               	bcf	3,6	;RP1=0, select bank0
  2177     0FDB  0095               	movwf	21	;volatile
  2178     0FDC                     l1820:
  2179                           
  2180                           ;main.c: 86:     CCP1CONbits.CCP1X = (tempreg & 0b00000001);
  2181     0FDC  1683               	bsf	3,5	;RP0=1, select bank1
  2182     0FDD  1303               	bcf	3,6	;RP1=0, select bank1
  2183     0FDE  0839               	movf	PWM_SetDutyCycles@tempreg^(0+128),w
  2184     0FDF  3901               	andlw	1
  2185     0FE0  00B0               	movwf	??_PWM_SetDutyCycles^(0+128)
  2186     0FE1  0EB0               	swapf	??_PWM_SetDutyCycles^(0+128),f
  2187     0FE2  0DB0               	rlf	??_PWM_SetDutyCycles^(0+128),f
  2188     0FE3  1283               	bcf	3,5	;RP0=0, select bank0
  2189     0FE4  1303               	bcf	3,6	;RP1=0, select bank0
  2190     0FE5  0817               	movf	23,w	;volatile
  2191     0FE6  1683               	bsf	3,5	;RP0=1, select bank1
  2192     0FE7  1303               	bcf	3,6	;RP1=0, select bank1
  2193     0FE8  0630               	xorwf	??_PWM_SetDutyCycles^(0+128),w
  2194     0FE9  39DF               	andlw	-33
  2195     0FEA  0630               	xorwf	??_PWM_SetDutyCycles^(0+128),w
  2196     0FEB  1283               	bcf	3,5	;RP0=0, select bank0
  2197     0FEC  1303               	bcf	3,6	;RP1=0, select bank0
  2198     0FED  0097               	movwf	23	;volatile
  2199     0FEE                     l1822:
  2200                           
  2201                           ;main.c: 87:     CCP1CONbits.CCP1Y = (tempreg & 0b00000010);
  2202     0FEE  1683               	bsf	3,5	;RP0=1, select bank1
  2203     0FEF  1303               	bcf	3,6	;RP1=0, select bank1
  2204     0FF0  0839               	movf	PWM_SetDutyCycles@tempreg^(0+128),w
  2205     0FF1  3902               	andlw	2
  2206     0FF2  00B0               	movwf	??_PWM_SetDutyCycles^(0+128)
  2207     0FF3  0EB0               	swapf	??_PWM_SetDutyCycles^(0+128),f
  2208     0FF4  1283               	bcf	3,5	;RP0=0, select bank0
  2209     0FF5  1303               	bcf	3,6	;RP1=0, select bank0
  2210     0FF6  0817               	movf	23,w	;volatile
  2211     0FF7  1683               	bsf	3,5	;RP0=1, select bank1
  2212     0FF8  1303               	bcf	3,6	;RP1=0, select bank1
  2213     0FF9  0630               	xorwf	??_PWM_SetDutyCycles^(0+128),w
  2214     0FFA  39EF               	andlw	-17
  2215     0FFB  0630               	xorwf	??_PWM_SetDutyCycles^(0+128),w
  2216     0FFC  1283               	bcf	3,5	;RP0=0, select bank0
  2217     0FFD  1303               	bcf	3,6	;RP1=0, select bank0
  2218     0FFE  0097               	movwf	23	;volatile
  2219     0FFF                     l36:
  2220     0FFF  0008               	return
  2221     1000                     __end_of_PWM_SetDutyCycles:
  2222                           
  2223                           	psect	text5
  2224     0D76                     __ptext5:	
  2225 ;; *************** function ___xxtofl *****************
  2226 ;; Defined at:
  2227 ;;		line 10 in file "C:\Program Files\Microchip\xc8\v2.50\pic\sources\c99\common\xxtofl.c"
  2228 ;; Parameters:    Size  Location     Type
  2229 ;;  sign            1    wreg     unsigned char 
  2230 ;;  val             4    0[BANK0 ] long 
  2231 ;; Auto vars:     Size  Location     Type
  2232 ;;  sign            1    8[BANK0 ] unsigned char 
  2233 ;;  arg             4   10[BANK0 ] unsigned long 
  2234 ;;  exp             1    9[BANK0 ] unsigned char 
  2235 ;; Return value:  Size  Location     Type
  2236 ;;                  4    0[BANK0 ] unsigned char 
  2237 ;; Registers used:
  2238 ;;		wreg, status,2, status,0
  2239 ;; Tracked objects:
  2240 ;;		On entry : 0/0
  2241 ;;		On exit  : 0/0
  2242 ;;		Unchanged: 0/0
  2243 ;; Data sizes:     COMMON   BANK0   BANK1   BANK3   BANK2
  2244 ;;      Params:         0       4       0       0       0
  2245 ;;      Locals:         0       6       0       0       0
  2246 ;;      Temps:          0       4       0       0       0
  2247 ;;      Totals:         0      14       0       0       0
  2248 ;;Total ram usage:       14 bytes
  2249 ;; Hardware stack levels used: 1
  2250 ;; This function calls:
  2251 ;;		Nothing
  2252 ;; This function is called by:
  2253 ;;		_PWM_SetFreq
  2254 ;;		_PWM_SetDutyCycles
  2255 ;; This function uses a non-reentrant model
  2256 ;;
  2257                           
  2258     0D76                     ___xxtofl:	
  2259                           ;psect for function ___xxtofl
  2260                           
  2261                           
  2262                           ;incstack = 0
  2263                           ; Regs used in ___xxtofl: [wreg+status,2+status,0]
  2264                           ;___xxtofl@sign stored from wreg
  2265     0D76  1283               	bcf	3,5	;RP0=0, select bank0
  2266     0D77  1303               	bcf	3,6	;RP1=0, select bank0
  2267     0D78  00A8               	movwf	___xxtofl@sign
  2268     0D79                     l1762:
  2269     0D79  0828               	movf	___xxtofl@sign,w
  2270     0D7A  1903               	btfsc	3,2
  2271     0D7B  2D7D               	goto	u2791
  2272     0D7C  2D7E               	goto	u2790
  2273     0D7D                     u2791:
  2274     0D7D  2D92               	goto	l1768
  2275     0D7E                     u2790:
  2276     0D7E                     l1764:
  2277     0D7E  1FA3               	btfss	___xxtofl@val+3,7
  2278     0D7F  2D81               	goto	u2801
  2279     0D80  2D82               	goto	u2800
  2280     0D81                     u2801:
  2281     0D81  2D92               	goto	l1768
  2282     0D82                     u2800:
  2283     0D82                     l1766:
  2284     0D82  0920               	comf	___xxtofl@val,w
  2285     0D83  00AA               	movwf	___xxtofl@arg
  2286     0D84  0921               	comf	___xxtofl@val+1,w
  2287     0D85  00AB               	movwf	___xxtofl@arg+1
  2288     0D86  0922               	comf	___xxtofl@val+2,w
  2289     0D87  00AC               	movwf	___xxtofl@arg+2
  2290     0D88  0923               	comf	___xxtofl@val+3,w
  2291     0D89  00AD               	movwf	___xxtofl@arg+3
  2292     0D8A  0AAA               	incf	___xxtofl@arg,f
  2293     0D8B  1903               	skipnz
  2294     0D8C  0AAB               	incf	___xxtofl@arg+1,f
  2295     0D8D  1903               	skipnz
  2296     0D8E  0AAC               	incf	___xxtofl@arg+2,f
  2297     0D8F  1903               	skipnz
  2298     0D90  0AAD               	incf	___xxtofl@arg+3,f
  2299     0D91  2D9A               	goto	l563
  2300     0D92                     l1768:
  2301     0D92  0823               	movf	___xxtofl@val+3,w
  2302     0D93  00AD               	movwf	___xxtofl@arg+3
  2303     0D94  0822               	movf	___xxtofl@val+2,w
  2304     0D95  00AC               	movwf	___xxtofl@arg+2
  2305     0D96  0821               	movf	___xxtofl@val+1,w
  2306     0D97  00AB               	movwf	___xxtofl@arg+1
  2307     0D98  0820               	movf	___xxtofl@val,w
  2308     0D99  00AA               	movwf	___xxtofl@arg
  2309     0D9A                     l563:
  2310     0D9A  0823               	movf	___xxtofl@val+3,w
  2311     0D9B  0422               	iorwf	___xxtofl@val+2,w
  2312     0D9C  0421               	iorwf	___xxtofl@val+1,w
  2313     0D9D  0420               	iorwf	___xxtofl@val,w
  2314     0D9E  1D03               	skipz
  2315     0D9F  2DA1               	goto	u2811
  2316     0DA0  2DA2               	goto	u2810
  2317     0DA1                     u2811:
  2318     0DA1  2DAB               	goto	l564
  2319     0DA2                     u2810:
  2320     0DA2                     l1770:
  2321     0DA2  3000               	movlw	0
  2322     0DA3  00A3               	movwf	?___xxtofl+3
  2323     0DA4  3000               	movlw	0
  2324     0DA5  00A2               	movwf	?___xxtofl+2
  2325     0DA6  3000               	movlw	0
  2326     0DA7  00A1               	movwf	?___xxtofl+1
  2327     0DA8  3000               	movlw	0
  2328     0DA9  00A0               	movwf	?___xxtofl
  2329     0DAA  2E2B               	goto	l565
  2330     0DAB                     l564:
  2331     0DAB  3096               	movlw	150
  2332     0DAC  00A9               	movwf	___xxtofl@exp
  2333     0DAD  2DB9               	goto	l1776
  2334     0DAE                     l1774:
  2335     0DAE  3001               	movlw	1
  2336     0DAF  07A9               	addwf	___xxtofl@exp,f
  2337     0DB0  3001               	movlw	1
  2338     0DB1                     u2825:
  2339     0DB1  1003               	clrc
  2340     0DB2  0CAD               	rrf	___xxtofl@arg+3,f
  2341     0DB3  0CAC               	rrf	___xxtofl@arg+2,f
  2342     0DB4  0CAB               	rrf	___xxtofl@arg+1,f
  2343     0DB5  0CAA               	rrf	___xxtofl@arg,f
  2344     0DB6  3EFF               	addlw	-1
  2345     0DB7  1D03               	skipz
  2346     0DB8  2DB1               	goto	u2825
  2347     0DB9                     l1776:
  2348     0DB9  30FE               	movlw	254
  2349     0DBA  052D               	andwf	___xxtofl@arg+3,w
  2350     0DBB  1D03               	btfss	3,2
  2351     0DBC  2DBE               	goto	u2831
  2352     0DBD  2DBF               	goto	u2830
  2353     0DBE                     u2831:
  2354     0DBE  2DAE               	goto	l1774
  2355     0DBF                     u2830:
  2356     0DBF  2DD9               	goto	l569
  2357     0DC0                     l1778:
  2358     0DC0  3001               	movlw	1
  2359     0DC1  07A9               	addwf	___xxtofl@exp,f
  2360     0DC2                     l1780:
  2361     0DC2  3001               	movlw	1
  2362     0DC3  07AA               	addwf	___xxtofl@arg,f
  2363     0DC4  3000               	movlw	0
  2364     0DC5  1803               	skipnc
  2365     0DC6  3001               	movlw	1
  2366     0DC7  07AB               	addwf	___xxtofl@arg+1,f
  2367     0DC8  3000               	movlw	0
  2368     0DC9  1803               	skipnc
  2369     0DCA  3001               	movlw	1
  2370     0DCB  07AC               	addwf	___xxtofl@arg+2,f
  2371     0DCC  3000               	movlw	0
  2372     0DCD  1803               	skipnc
  2373     0DCE  3001               	movlw	1
  2374     0DCF  07AD               	addwf	___xxtofl@arg+3,f
  2375     0DD0                     l1782:
  2376     0DD0  3001               	movlw	1
  2377     0DD1                     u2845:
  2378     0DD1  1003               	clrc
  2379     0DD2  0CAD               	rrf	___xxtofl@arg+3,f
  2380     0DD3  0CAC               	rrf	___xxtofl@arg+2,f
  2381     0DD4  0CAB               	rrf	___xxtofl@arg+1,f
  2382     0DD5  0CAA               	rrf	___xxtofl@arg,f
  2383     0DD6  3EFF               	addlw	-1
  2384     0DD7  1D03               	skipz
  2385     0DD8  2DD1               	goto	u2845
  2386     0DD9                     l569:
  2387     0DD9  30FF               	movlw	255
  2388     0DDA  052D               	andwf	___xxtofl@arg+3,w
  2389     0DDB  1D03               	btfss	3,2
  2390     0DDC  2DDE               	goto	u2851
  2391     0DDD  2DDF               	goto	u2850
  2392     0DDE                     u2851:
  2393     0DDE  2DC0               	goto	l1778
  2394     0DDF                     u2850:
  2395     0DDF  2DEB               	goto	l1786
  2396     0DE0                     l1784:
  2397     0DE0  3001               	movlw	1
  2398     0DE1  02A9               	subwf	___xxtofl@exp,f
  2399     0DE2  3001               	movlw	1
  2400     0DE3  00A4               	movwf	??___xxtofl
  2401     0DE4                     u2865:
  2402     0DE4  1003               	clrc
  2403     0DE5  0DAA               	rlf	___xxtofl@arg,f
  2404     0DE6  0DAB               	rlf	___xxtofl@arg+1,f
  2405     0DE7  0DAC               	rlf	___xxtofl@arg+2,f
  2406     0DE8  0DAD               	rlf	___xxtofl@arg+3,f
  2407     0DE9  0BA4               	decfsz	??___xxtofl,f
  2408     0DEA  2DE4               	goto	u2865
  2409     0DEB                     l1786:
  2410     0DEB  1BAC               	btfsc	___xxtofl@arg+2,7
  2411     0DEC  2DEE               	goto	u2871
  2412     0DED  2DEF               	goto	u2870
  2413     0DEE                     u2871:
  2414     0DEE  2DF5               	goto	l576
  2415     0DEF                     u2870:
  2416     0DEF                     l1788:
  2417     0DEF  3002               	movlw	2
  2418     0DF0  0229               	subwf	___xxtofl@exp,w
  2419     0DF1  1803               	skipnc
  2420     0DF2  2DF4               	goto	u2881
  2421     0DF3  2DF5               	goto	u2880
  2422     0DF4                     u2881:
  2423     0DF4  2DE0               	goto	l1784
  2424     0DF5                     u2880:
  2425     0DF5                     l576:
  2426     0DF5  1829               	btfsc	___xxtofl@exp,0
  2427     0DF6  2DF8               	goto	u2891
  2428     0DF7  2DF9               	goto	u2890
  2429     0DF8                     u2891:
  2430     0DF8  2E01               	goto	l577
  2431     0DF9                     u2890:
  2432     0DF9                     l1790:
  2433     0DF9  30FF               	movlw	255
  2434     0DFA  05AA               	andwf	___xxtofl@arg,f
  2435     0DFB  30FF               	movlw	255
  2436     0DFC  05AB               	andwf	___xxtofl@arg+1,f
  2437     0DFD  307F               	movlw	127
  2438     0DFE  05AC               	andwf	___xxtofl@arg+2,f
  2439     0DFF  30FF               	movlw	255
  2440     0E00  05AD               	andwf	___xxtofl@arg+3,f
  2441     0E01                     l577:
  2442     0E01  1003               	clrc
  2443     0E02  0CA9               	rrf	___xxtofl@exp,f
  2444     0E03                     l1792:
  2445     0E03  0829               	movf	___xxtofl@exp,w
  2446     0E04  00A4               	movwf	??___xxtofl
  2447     0E05  01A5               	clrf	??___xxtofl+1
  2448     0E06  01A6               	clrf	??___xxtofl+2
  2449     0E07  01A7               	clrf	??___xxtofl+3
  2450     0E08  3018               	movlw	24
  2451     0E09                     u2905:
  2452     0E09  1003               	clrc
  2453     0E0A  0DA4               	rlf	??___xxtofl,f
  2454     0E0B  0DA5               	rlf	??___xxtofl+1,f
  2455     0E0C  0DA6               	rlf	??___xxtofl+2,f
  2456     0E0D  0DA7               	rlf	??___xxtofl+3,f
  2457     0E0E                     u2900:
  2458     0E0E  3EFF               	addlw	-1
  2459     0E0F  1D03               	skipz
  2460     0E10  2E09               	goto	u2905
  2461     0E11  0824               	movf	??___xxtofl,w
  2462     0E12  04AA               	iorwf	___xxtofl@arg,f
  2463     0E13  0825               	movf	??___xxtofl+1,w
  2464     0E14  04AB               	iorwf	___xxtofl@arg+1,f
  2465     0E15  0826               	movf	??___xxtofl+2,w
  2466     0E16  04AC               	iorwf	___xxtofl@arg+2,f
  2467     0E17  0827               	movf	??___xxtofl+3,w
  2468     0E18  04AD               	iorwf	___xxtofl@arg+3,f
  2469     0E19                     l1794:
  2470     0E19  0828               	movf	___xxtofl@sign,w
  2471     0E1A  1903               	btfsc	3,2
  2472     0E1B  2E1D               	goto	u2911
  2473     0E1C  2E1E               	goto	u2910
  2474     0E1D                     u2911:
  2475     0E1D  2E23               	goto	l1800
  2476     0E1E                     u2910:
  2477     0E1E                     l1796:
  2478     0E1E  1FA3               	btfss	___xxtofl@val+3,7
  2479     0E1F  2E21               	goto	u2921
  2480     0E20  2E22               	goto	u2920
  2481     0E21                     u2921:
  2482     0E21  2E23               	goto	l1800
  2483     0E22                     u2920:
  2484     0E22                     l1798:
  2485     0E22  17AD               	bsf	___xxtofl@arg+3,7
  2486     0E23                     l1800:
  2487     0E23  082D               	movf	___xxtofl@arg+3,w
  2488     0E24  00A3               	movwf	?___xxtofl+3
  2489     0E25  082C               	movf	___xxtofl@arg+2,w
  2490     0E26  00A2               	movwf	?___xxtofl+2
  2491     0E27  082B               	movf	___xxtofl@arg+1,w
  2492     0E28  00A1               	movwf	?___xxtofl+1
  2493     0E29  082A               	movf	___xxtofl@arg,w
  2494     0E2A  00A0               	movwf	?___xxtofl
  2495     0E2B                     l565:
  2496     0E2B  0008               	return
  2497     0E2C                     __end_of___xxtofl:
  2498                           
  2499                           	psect	text6
  2500     0CEA                     __ptext6:	
  2501 ;; *************** function ___fltol *****************
  2502 ;; Defined at:
  2503 ;;		line 43 in file "C:\Program Files\Microchip\xc8\v2.50\pic\sources\c99\common\fltol.c"
  2504 ;; Parameters:    Size  Location     Type
  2505 ;;  f1              4    8[BANK1 ] unsigned char 
  2506 ;; Auto vars:     Size  Location     Type
  2507 ;;  exp1            1   79[BANK0 ] unsigned char 
  2508 ;;  sign1           1   78[BANK0 ] unsigned char 
  2509 ;; Return value:  Size  Location     Type
  2510 ;;                  4    8[BANK1 ] long 
  2511 ;; Registers used:
  2512 ;;		wreg, status,2, status,0
  2513 ;; Tracked objects:
  2514 ;;		On entry : 0/0
  2515 ;;		On exit  : 0/0
  2516 ;;		Unchanged: 0/0
  2517 ;; Data sizes:     COMMON   BANK0   BANK1   BANK3   BANK2
  2518 ;;      Params:         0       0       4       0       0
  2519 ;;      Locals:         0       2       0       0       0
  2520 ;;      Temps:          0       0       4       0       0
  2521 ;;      Totals:         0       2       8       0       0
  2522 ;;Total ram usage:       10 bytes
  2523 ;; Hardware stack levels used: 1
  2524 ;; This function calls:
  2525 ;;		Nothing
  2526 ;; This function is called by:
  2527 ;;		_PWM_SetFreq
  2528 ;;		_PWM_SetDutyCycles
  2529 ;; This function uses a non-reentrant model
  2530 ;;
  2531                           
  2532     0CEA                     ___fltol:	
  2533                           ;psect for function ___fltol
  2534                           
  2535     0CEA                     l1242:	
  2536                           ;incstack = 0
  2537                           ; Regs used in ___fltol: [wreg+status,2+status,0]
  2538                           
  2539     0CEA  1003               	clrc
  2540     0CEB  1683               	bsf	3,5	;RP0=1, select bank1
  2541     0CEC  1303               	bcf	3,6	;RP1=0, select bank1
  2542     0CED  0D2A               	rlf	(___fltol@f1+2)^(0+128),w
  2543     0CEE  0D2B               	rlf	(___fltol@f1+3)^(0+128),w
  2544     0CEF  1283               	bcf	3,5	;RP0=0, select bank0
  2545     0CF0  1303               	bcf	3,6	;RP1=0, select bank0
  2546     0CF1  00EF               	movwf	___fltol@exp1
  2547     0CF2  086F               	movf	___fltol@exp1,w
  2548     0CF3  1D03               	btfss	3,2
  2549     0CF4  2CF6               	goto	u1571
  2550     0CF5  2CF7               	goto	u1570
  2551     0CF6                     u1571:
  2552     0CF6  2D02               	goto	l1248
  2553     0CF7                     u1570:
  2554     0CF7                     l1244:
  2555     0CF7  3000               	movlw	0
  2556     0CF8  1683               	bsf	3,5	;RP0=1, select bank1
  2557     0CF9  1303               	bcf	3,6	;RP1=0, select bank1
  2558     0CFA  00AB               	movwf	(?___fltol+3)^(0+128)
  2559     0CFB  3000               	movlw	0
  2560     0CFC  00AA               	movwf	(?___fltol+2)^(0+128)
  2561     0CFD  3000               	movlw	0
  2562     0CFE  00A9               	movwf	(?___fltol+1)^(0+128)
  2563     0CFF  3000               	movlw	0
  2564     0D00  00A8               	movwf	?___fltol^(0+128)
  2565     0D01  2D75               	goto	l316
  2566     0D02                     l1248:
  2567     0D02  1683               	bsf	3,5	;RP0=1, select bank1
  2568     0D03  1303               	bcf	3,6	;RP1=0, select bank1
  2569     0D04  0828               	movf	___fltol@f1^(0+128),w
  2570     0D05  00AC               	movwf	??___fltol^(0+128)
  2571     0D06  0829               	movf	(___fltol@f1+1)^(0+128),w
  2572     0D07  00AD               	movwf	(??___fltol^(0+128)+1)
  2573     0D08  082A               	movf	(___fltol@f1+2)^(0+128),w
  2574     0D09  00AE               	movwf	(??___fltol^(0+128)+2)
  2575     0D0A  082B               	movf	(___fltol@f1+3)^(0+128),w
  2576     0D0B  00AF               	movwf	(??___fltol^(0+128)+3)
  2577     0D0C  301F               	movlw	31
  2578     0D0D                     u1585:
  2579     0D0D  1003               	clrc
  2580     0D0E  0CAF               	rrf	(??___fltol^(0+128)+3),f
  2581     0D0F  0CAE               	rrf	(??___fltol^(0+128)+2),f
  2582     0D10  0CAD               	rrf	(??___fltol^(0+128)+1),f
  2583     0D11  0CAC               	rrf	??___fltol^(0+128),f
  2584     0D12                     u1580:
  2585     0D12  3EFF               	addlw	-1
  2586     0D13  1D03               	skipz
  2587     0D14  2D0D               	goto	u1585
  2588     0D15  082C               	movf	??___fltol^(0+128),w
  2589     0D16  1283               	bcf	3,5	;RP0=0, select bank0
  2590     0D17  1303               	bcf	3,6	;RP1=0, select bank0
  2591     0D18  00EE               	movwf	___fltol@sign1
  2592     0D19                     l1250:
  2593     0D19  1683               	bsf	3,5	;RP0=1, select bank1
  2594     0D1A  1303               	bcf	3,6	;RP1=0, select bank1
  2595     0D1B  17AA               	bsf	(___fltol@f1^(0+128)+2),7
  2596     0D1C                     l1252:
  2597     0D1C  30FF               	movlw	255
  2598     0D1D  05A8               	andwf	___fltol@f1^(0+128),f
  2599     0D1E  30FF               	movlw	255
  2600     0D1F  05A9               	andwf	(___fltol@f1+1)^(0+128),f
  2601     0D20  30FF               	movlw	255
  2602     0D21  05AA               	andwf	(___fltol@f1+2)^(0+128),f
  2603     0D22  3000               	movlw	0
  2604     0D23  05AB               	andwf	(___fltol@f1+3)^(0+128),f
  2605     0D24                     l1254:
  2606     0D24  3096               	movlw	150
  2607     0D25  1283               	bcf	3,5	;RP0=0, select bank0
  2608     0D26  1303               	bcf	3,6	;RP1=0, select bank0
  2609     0D27  02EF               	subwf	___fltol@exp1,f
  2610     0D28                     l1256:
  2611     0D28  1FEF               	btfss	___fltol@exp1,7
  2612     0D29  2D2B               	goto	u1591
  2613     0D2A  2D2C               	goto	u1590
  2614     0D2B                     u1591:
  2615     0D2B  2D48               	goto	l1266
  2616     0D2C                     u1590:
  2617     0D2C                     l1258:
  2618     0D2C  086F               	movf	___fltol@exp1,w
  2619     0D2D  3A80               	xorlw	128
  2620     0D2E  3E97               	addlw	151
  2621     0D2F  1803               	skipnc
  2622     0D30  2D32               	goto	u1601
  2623     0D31  2D33               	goto	u1600
  2624     0D32                     u1601:
  2625     0D32  2D34               	goto	l1264
  2626     0D33                     u1600:
  2627     0D33  2CF7               	goto	l1244
  2628     0D34                     l1264:
  2629     0D34  3001               	movlw	1
  2630     0D35                     u1615:
  2631     0D35  1003               	clrc
  2632     0D36  1683               	bsf	3,5	;RP0=1, select bank1
  2633     0D37  1303               	bcf	3,6	;RP1=0, select bank1
  2634     0D38  0CAB               	rrf	(___fltol@f1+3)^(0+128),f
  2635     0D39  0CAA               	rrf	(___fltol@f1+2)^(0+128),f
  2636     0D3A  0CA9               	rrf	(___fltol@f1+1)^(0+128),f
  2637     0D3B  0CA8               	rrf	___fltol@f1^(0+128),f
  2638     0D3C  3EFF               	addlw	-1
  2639     0D3D  1D03               	skipz
  2640     0D3E  2D35               	goto	u1615
  2641     0D3F  3001               	movlw	1
  2642     0D40  1283               	bcf	3,5	;RP0=0, select bank0
  2643     0D41  1303               	bcf	3,6	;RP1=0, select bank0
  2644     0D42  07EF               	addwf	___fltol@exp1,f
  2645     0D43  1D03               	btfss	3,2
  2646     0D44  2D46               	goto	u1621
  2647     0D45  2D47               	goto	u1620
  2648     0D46                     u1621:
  2649     0D46  2D34               	goto	l1264
  2650     0D47                     u1620:
  2651     0D47  2D63               	goto	l1274
  2652     0D48                     l1266:
  2653     0D48  3020               	movlw	32
  2654     0D49  026F               	subwf	___fltol@exp1,w
  2655     0D4A  1C03               	skipc
  2656     0D4B  2D4D               	goto	u1631
  2657     0D4C  2D4E               	goto	u1630
  2658     0D4D                     u1631:
  2659     0D4D  2D5E               	goto	l323
  2660     0D4E                     u1630:
  2661     0D4E  2CF7               	goto	l1244
  2662     0D4F                     l1272:
  2663     0D4F  3001               	movlw	1
  2664     0D50  1683               	bsf	3,5	;RP0=1, select bank1
  2665     0D51  1303               	bcf	3,6	;RP1=0, select bank1
  2666     0D52  00AC               	movwf	??___fltol^(0+128)
  2667     0D53                     u1645:
  2668     0D53  1003               	clrc
  2669     0D54  0DA8               	rlf	___fltol@f1^(0+128),f
  2670     0D55  0DA9               	rlf	(___fltol@f1+1)^(0+128),f
  2671     0D56  0DAA               	rlf	(___fltol@f1+2)^(0+128),f
  2672     0D57  0DAB               	rlf	(___fltol@f1+3)^(0+128),f
  2673     0D58  0BAC               	decfsz	??___fltol^(0+128),f
  2674     0D59  2D53               	goto	u1645
  2675     0D5A  3001               	movlw	1
  2676     0D5B  1283               	bcf	3,5	;RP0=0, select bank0
  2677     0D5C  1303               	bcf	3,6	;RP1=0, select bank0
  2678     0D5D  02EF               	subwf	___fltol@exp1,f
  2679     0D5E                     l323:
  2680     0D5E  086F               	movf	___fltol@exp1,w
  2681     0D5F  1D03               	btfss	3,2
  2682     0D60  2D62               	goto	u1651
  2683     0D61  2D63               	goto	u1650
  2684     0D62                     u1651:
  2685     0D62  2D4F               	goto	l1272
  2686     0D63                     u1650:
  2687     0D63                     l1274:
  2688     0D63  086E               	movf	___fltol@sign1,w
  2689     0D64  1903               	btfsc	3,2
  2690     0D65  2D67               	goto	u1661
  2691     0D66  2D68               	goto	u1660
  2692     0D67                     u1661:
  2693     0D67  2D75               	goto	l326
  2694     0D68                     u1660:
  2695     0D68                     l1276:
  2696     0D68  1683               	bsf	3,5	;RP0=1, select bank1
  2697     0D69  1303               	bcf	3,6	;RP1=0, select bank1
  2698     0D6A  09A8               	comf	___fltol@f1^(0+128),f
  2699     0D6B  09A9               	comf	(___fltol@f1+1)^(0+128),f
  2700     0D6C  09AA               	comf	(___fltol@f1+2)^(0+128),f
  2701     0D6D  09AB               	comf	(___fltol@f1+3)^(0+128),f
  2702     0D6E  0AA8               	incf	___fltol@f1^(0+128),f
  2703     0D6F  1903               	skipnz
  2704     0D70  0AA9               	incf	(___fltol@f1+1)^(0+128),f
  2705     0D71  1903               	skipnz
  2706     0D72  0AAA               	incf	(___fltol@f1+2)^(0+128),f
  2707     0D73  1903               	skipnz
  2708     0D74  0AAB               	incf	(___fltol@f1+3)^(0+128),f
  2709     0D75                     l326:
  2710     0D75                     l316:
  2711     0D75  0008               	return
  2712     0D76                     __end_of___fltol:
  2713                           
  2714                           	psect	text7
  2715     04B2                     __ptext7:	
  2716 ;; *************** function ___flmul *****************
  2717 ;; Defined at:
  2718 ;;		line 8 in file "C:\Program Files\Microchip\xc8\v2.50\pic\sources\c99\common\sprcmul.c"
  2719 ;; Parameters:    Size  Location     Type
  2720 ;;  b               4   14[BANK0 ] long 
  2721 ;;  a               4   18[BANK0 ] long 
  2722 ;; Auto vars:     Size  Location     Type
  2723 ;;  prod            4   34[BANK0 ] struct .
  2724 ;;  grs             4   28[BANK0 ] unsigned long 
  2725 ;;  temp            2   38[BANK0 ] struct .
  2726 ;;  bexp            1   33[BANK0 ] unsigned char 
  2727 ;;  aexp            1   32[BANK0 ] unsigned char 
  2728 ;;  sign            1   27[BANK0 ] unsigned char 
  2729 ;; Return value:  Size  Location     Type
  2730 ;;                  4   14[BANK0 ] unsigned char 
  2731 ;; Registers used:
  2732 ;;		wreg, status,2, status,0, btemp+1, pclath, cstack
  2733 ;; Tracked objects:
  2734 ;;		On entry : 0/0
  2735 ;;		On exit  : 0/0
  2736 ;;		Unchanged: 0/0
  2737 ;; Data sizes:     COMMON   BANK0   BANK1   BANK3   BANK2
  2738 ;;      Params:         0       8       0       0       0
  2739 ;;      Locals:         0      13       0       0       0
  2740 ;;      Temps:          0       5       0       0       0
  2741 ;;      Totals:         0      26       0       0       0
  2742 ;;Total ram usage:       26 bytes
  2743 ;; Hardware stack levels used: 1
  2744 ;; Hardware stack levels required when called: 1
  2745 ;; This function calls:
  2746 ;;		__Umul8_16
  2747 ;; This function is called by:
  2748 ;;		_PWM_SetFreq
  2749 ;;		_PWM_SetDutyCycles
  2750 ;; This function uses a non-reentrant model
  2751 ;;
  2752                           
  2753     04B2                     ___flmul:	
  2754                           ;psect for function ___flmul
  2755                           
  2756     04B2                     l1620:	
  2757                           ;incstack = 0
  2758                           ; Regs used in ___flmul: [wreg+status,2+status,0+btemp+1+pclath+cstack]
  2759                           
  2760     04B2  1283               	bcf	3,5	;RP0=0, select bank0
  2761     04B3  1303               	bcf	3,6	;RP1=0, select bank0
  2762     04B4  0831               	movf	___flmul@b+3,w
  2763     04B5  00BB               	movwf	___flmul@sign
  2764     04B6                     l1622:
  2765     04B6  3080               	movlw	128
  2766     04B7  05BB               	andwf	___flmul@sign,f
  2767     04B8                     l1624:
  2768     04B8  0831               	movf	___flmul@b+3,w
  2769     04B9  00B6               	movwf	??___flmul
  2770     04BA  0736               	addwf	??___flmul,w
  2771     04BB  00C1               	movwf	___flmul@bexp
  2772     04BC                     l1626:
  2773     04BC  1FB0               	btfss	___flmul@b+2,7
  2774     04BD  2CBF               	goto	u2421
  2775     04BE  2CC0               	goto	u2420
  2776     04BF                     u2421:
  2777     04BF  2CC1               	goto	l1630
  2778     04C0                     u2420:
  2779     04C0                     l1628:
  2780     04C0  1441               	bsf	___flmul@bexp,0
  2781     04C1                     l1630:
  2782     04C1  0841               	movf	___flmul@bexp,w
  2783     04C2  1903               	btfsc	3,2
  2784     04C3  2CC5               	goto	u2431
  2785     04C4  2CC6               	goto	u2430
  2786     04C5                     u2431:
  2787     04C5  2CD5               	goto	l1638
  2788     04C6                     u2430:
  2789     04C6                     l1632:
  2790     04C6  0A41               	incf	___flmul@bexp,w
  2791     04C7  1D03               	btfss	3,2
  2792     04C8  2CCA               	goto	u2441
  2793     04C9  2CCB               	goto	u2440
  2794     04CA                     u2441:
  2795     04CA  2CD3               	goto	l1636
  2796     04CB                     u2440:
  2797     04CB                     l1634:
  2798     04CB  3000               	movlw	0
  2799     04CC  00B1               	movwf	___flmul@b+3
  2800     04CD  3000               	movlw	0
  2801     04CE  00B0               	movwf	___flmul@b+2
  2802     04CF  3000               	movlw	0
  2803     04D0  00AF               	movwf	___flmul@b+1
  2804     04D1  3000               	movlw	0
  2805     04D2  00AE               	movwf	___flmul@b
  2806     04D3                     l1636:
  2807     04D3  17B0               	bsf	___flmul@b+2,7
  2808     04D4  2CDD               	goto	l1640
  2809     04D5                     l1638:
  2810     04D5  3000               	movlw	0
  2811     04D6  00B1               	movwf	___flmul@b+3
  2812     04D7  3000               	movlw	0
  2813     04D8  00B0               	movwf	___flmul@b+2
  2814     04D9  3000               	movlw	0
  2815     04DA  00AF               	movwf	___flmul@b+1
  2816     04DB  3000               	movlw	0
  2817     04DC  00AE               	movwf	___flmul@b
  2818     04DD                     l1640:
  2819     04DD  0835               	movf	___flmul@a+3,w
  2820     04DE  3980               	andlw	128
  2821     04DF  06BB               	xorwf	___flmul@sign,f
  2822     04E0                     l1642:
  2823     04E0  0835               	movf	___flmul@a+3,w
  2824     04E1  00B6               	movwf	??___flmul
  2825     04E2  0736               	addwf	??___flmul,w
  2826     04E3  00C0               	movwf	___flmul@aexp
  2827     04E4                     l1644:
  2828     04E4  1FB4               	btfss	___flmul@a+2,7
  2829     04E5  2CE7               	goto	u2451
  2830     04E6  2CE8               	goto	u2450
  2831     04E7                     u2451:
  2832     04E7  2CE9               	goto	l1648
  2833     04E8                     u2450:
  2834     04E8                     l1646:
  2835     04E8  1440               	bsf	___flmul@aexp,0
  2836     04E9                     l1648:
  2837     04E9  0840               	movf	___flmul@aexp,w
  2838     04EA  1903               	btfsc	3,2
  2839     04EB  2CED               	goto	u2461
  2840     04EC  2CEE               	goto	u2460
  2841     04ED                     u2461:
  2842     04ED  2CFD               	goto	l1656
  2843     04EE                     u2460:
  2844     04EE                     l1650:
  2845     04EE  0A40               	incf	___flmul@aexp,w
  2846     04EF  1D03               	btfss	3,2
  2847     04F0  2CF2               	goto	u2471
  2848     04F1  2CF3               	goto	u2470
  2849     04F2                     u2471:
  2850     04F2  2CFB               	goto	l1654
  2851     04F3                     u2470:
  2852     04F3                     l1652:
  2853     04F3  3000               	movlw	0
  2854     04F4  00B5               	movwf	___flmul@a+3
  2855     04F5  3000               	movlw	0
  2856     04F6  00B4               	movwf	___flmul@a+2
  2857     04F7  3000               	movlw	0
  2858     04F8  00B3               	movwf	___flmul@a+1
  2859     04F9  3000               	movlw	0
  2860     04FA  00B2               	movwf	___flmul@a
  2861     04FB                     l1654:
  2862     04FB  17B4               	bsf	___flmul@a+2,7
  2863     04FC  2D05               	goto	l1658
  2864     04FD                     l1656:
  2865     04FD  3000               	movlw	0
  2866     04FE  00B5               	movwf	___flmul@a+3
  2867     04FF  3000               	movlw	0
  2868     0500  00B4               	movwf	___flmul@a+2
  2869     0501  3000               	movlw	0
  2870     0502  00B3               	movwf	___flmul@a+1
  2871     0503  3000               	movlw	0
  2872     0504  00B2               	movwf	___flmul@a
  2873     0505                     l1658:
  2874     0505  0840               	movf	___flmul@aexp,w
  2875     0506  1903               	btfsc	3,2
  2876     0507  2D09               	goto	u2481
  2877     0508  2D0A               	goto	u2480
  2878     0509                     u2481:
  2879     0509  2D0F               	goto	l1662
  2880     050A                     u2480:
  2881     050A                     l1660:
  2882     050A  0841               	movf	___flmul@bexp,w
  2883     050B  1D03               	btfss	3,2
  2884     050C  2D0E               	goto	u2491
  2885     050D  2D0F               	goto	u2490
  2886     050E                     u2491:
  2887     050E  2D18               	goto	l1666
  2888     050F                     u2490:
  2889     050F                     l1662:
  2890     050F  3000               	movlw	0
  2891     0510  00B1               	movwf	?___flmul+3
  2892     0511  3000               	movlw	0
  2893     0512  00B0               	movwf	?___flmul+2
  2894     0513  3000               	movlw	0
  2895     0514  00AF               	movwf	?___flmul+1
  2896     0515  3000               	movlw	0
  2897     0516  00AE               	movwf	?___flmul
  2898     0517  2FF3               	goto	l519
  2899     0518                     l1666:
  2900     0518  082E               	movf	___flmul@b,w
  2901     0519  00F0               	movwf	__Umul8_16@multiplicand
  2902     051A  0834               	movf	___flmul@a+2,w
  2903     051B  120A  158A  245F  120A  118A  	fcall	__Umul8_16
  2904     0520  0871               	movf	?__Umul8_16+1,w
  2905     0521  1283               	bcf	3,5	;RP0=0, select bank0
  2906     0522  1303               	bcf	3,6	;RP1=0, select bank0
  2907     0523  00C7               	movwf	___flmul@temp+1
  2908     0524  0870               	movf	?__Umul8_16,w
  2909     0525  00C6               	movwf	___flmul@temp
  2910     0526                     l1668:
  2911     0526  0846               	movf	___flmul@temp,w
  2912     0527  00B6               	movwf	??___flmul
  2913     0528  01B7               	clrf	??___flmul+1
  2914     0529  01B8               	clrf	??___flmul+2
  2915     052A  01B9               	clrf	??___flmul+3
  2916     052B  0839               	movf	??___flmul+3,w
  2917     052C  00BF               	movwf	___flmul@grs+3
  2918     052D  0838               	movf	??___flmul+2,w
  2919     052E  00BE               	movwf	___flmul@grs+2
  2920     052F  0837               	movf	??___flmul+1,w
  2921     0530  00BD               	movwf	___flmul@grs+1
  2922     0531  0836               	movf	??___flmul,w
  2923     0532  00BC               	movwf	___flmul@grs
  2924     0533                     l1670:
  2925     0533  0847               	movf	___flmul@temp+1,w
  2926     0534  00B6               	movwf	??___flmul
  2927     0535  01B7               	clrf	??___flmul+1
  2928     0536  01B8               	clrf	??___flmul+2
  2929     0537  01B9               	clrf	??___flmul+3
  2930     0538  0839               	movf	??___flmul+3,w
  2931     0539  00C5               	movwf	___flmul@prod+3
  2932     053A  0838               	movf	??___flmul+2,w
  2933     053B  00C4               	movwf	___flmul@prod+2
  2934     053C  0837               	movf	??___flmul+1,w
  2935     053D  00C3               	movwf	___flmul@prod+1
  2936     053E  0836               	movf	??___flmul,w
  2937     053F  00C2               	movwf	___flmul@prod
  2938     0540  082F               	movf	___flmul@b+1,w
  2939     0541  00F0               	movwf	__Umul8_16@multiplicand
  2940     0542  0833               	movf	___flmul@a+1,w
  2941     0543  120A  158A  245F  120A  118A  	fcall	__Umul8_16
  2942     0548  0871               	movf	?__Umul8_16+1,w
  2943     0549  1283               	bcf	3,5	;RP0=0, select bank0
  2944     054A  1303               	bcf	3,6	;RP1=0, select bank0
  2945     054B  00C7               	movwf	___flmul@temp+1
  2946     054C  0870               	movf	?__Umul8_16,w
  2947     054D  00C6               	movwf	___flmul@temp
  2948     054E                     l1672:
  2949     054E  0846               	movf	___flmul@temp,w
  2950     054F  00B6               	movwf	??___flmul
  2951     0550  01B7               	clrf	??___flmul+1
  2952     0551  01B8               	clrf	??___flmul+2
  2953     0552  01B9               	clrf	??___flmul+3
  2954     0553  0836               	movf	??___flmul,w
  2955     0554  07BC               	addwf	___flmul@grs,f
  2956     0555  0837               	movf	??___flmul+1,w
  2957     0556  1103               	clrz
  2958     0557  1803               	skipnc
  2959     0558  3E01               	addlw	1
  2960     0559  1903               	skipnz
  2961     055A  2D5C               	goto	u2501
  2962     055B  07BD               	addwf	___flmul@grs+1,f
  2963     055C                     u2501:
  2964     055C  0838               	movf	??___flmul+2,w
  2965     055D  1103               	clrz
  2966     055E  1803               	skipnc
  2967     055F  3E01               	addlw	1
  2968     0560  1903               	skipnz
  2969     0561  2D63               	goto	u2502
  2970     0562  07BE               	addwf	___flmul@grs+2,f
  2971     0563                     u2502:
  2972     0563  0839               	movf	??___flmul+3,w
  2973     0564  1103               	clrz
  2974     0565  1803               	skipnc
  2975     0566  3E01               	addlw	1
  2976     0567  1903               	skipnz
  2977     0568  2D6A               	goto	u2503
  2978     0569  07BF               	addwf	___flmul@grs+3,f
  2979     056A                     u2503:
  2980     056A                     l1674:
  2981     056A  0847               	movf	___flmul@temp+1,w
  2982     056B  00B6               	movwf	??___flmul
  2983     056C  01B7               	clrf	??___flmul+1
  2984     056D  01B8               	clrf	??___flmul+2
  2985     056E  01B9               	clrf	??___flmul+3
  2986     056F  0836               	movf	??___flmul,w
  2987     0570  07C2               	addwf	___flmul@prod,f
  2988     0571  0837               	movf	??___flmul+1,w
  2989     0572  1103               	clrz
  2990     0573  1803               	skipnc
  2991     0574  3E01               	addlw	1
  2992     0575  1903               	skipnz
  2993     0576  2D78               	goto	u2511
  2994     0577  07C3               	addwf	___flmul@prod+1,f
  2995     0578                     u2511:
  2996     0578  0838               	movf	??___flmul+2,w
  2997     0579  1103               	clrz
  2998     057A  1803               	skipnc
  2999     057B  3E01               	addlw	1
  3000     057C  1903               	skipnz
  3001     057D  2D7F               	goto	u2512
  3002     057E  07C4               	addwf	___flmul@prod+2,f
  3003     057F                     u2512:
  3004     057F  0839               	movf	??___flmul+3,w
  3005     0580  1103               	clrz
  3006     0581  1803               	skipnc
  3007     0582  3E01               	addlw	1
  3008     0583  1903               	skipnz
  3009     0584  2D86               	goto	u2513
  3010     0585  07C5               	addwf	___flmul@prod+3,f
  3011     0586                     u2513:
  3012     0586  0830               	movf	___flmul@b+2,w
  3013     0587  00F0               	movwf	__Umul8_16@multiplicand
  3014     0588  0832               	movf	___flmul@a,w
  3015     0589  120A  158A  245F  120A  118A  	fcall	__Umul8_16
  3016     058E  0871               	movf	?__Umul8_16+1,w
  3017     058F  1283               	bcf	3,5	;RP0=0, select bank0
  3018     0590  1303               	bcf	3,6	;RP1=0, select bank0
  3019     0591  00C7               	movwf	___flmul@temp+1
  3020     0592  0870               	movf	?__Umul8_16,w
  3021     0593  00C6               	movwf	___flmul@temp
  3022     0594                     l1676:
  3023     0594  0846               	movf	___flmul@temp,w
  3024     0595  00B6               	movwf	??___flmul
  3025     0596  01B7               	clrf	??___flmul+1
  3026     0597  01B8               	clrf	??___flmul+2
  3027     0598  01B9               	clrf	??___flmul+3
  3028     0599  0836               	movf	??___flmul,w
  3029     059A  07BC               	addwf	___flmul@grs,f
  3030     059B  0837               	movf	??___flmul+1,w
  3031     059C  1103               	clrz
  3032     059D  1803               	skipnc
  3033     059E  3E01               	addlw	1
  3034     059F  1903               	skipnz
  3035     05A0  2DA2               	goto	u2521
  3036     05A1  07BD               	addwf	___flmul@grs+1,f
  3037     05A2                     u2521:
  3038     05A2  0838               	movf	??___flmul+2,w
  3039     05A3  1103               	clrz
  3040     05A4  1803               	skipnc
  3041     05A5  3E01               	addlw	1
  3042     05A6  1903               	skipnz
  3043     05A7  2DA9               	goto	u2522
  3044     05A8  07BE               	addwf	___flmul@grs+2,f
  3045     05A9                     u2522:
  3046     05A9  0839               	movf	??___flmul+3,w
  3047     05AA  1103               	clrz
  3048     05AB  1803               	skipnc
  3049     05AC  3E01               	addlw	1
  3050     05AD  1903               	skipnz
  3051     05AE  2DB0               	goto	u2523
  3052     05AF  07BF               	addwf	___flmul@grs+3,f
  3053     05B0                     u2523:
  3054     05B0                     l1678:
  3055     05B0  0847               	movf	___flmul@temp+1,w
  3056     05B1  00B6               	movwf	??___flmul
  3057     05B2  01B7               	clrf	??___flmul+1
  3058     05B3  01B8               	clrf	??___flmul+2
  3059     05B4  01B9               	clrf	??___flmul+3
  3060     05B5  0836               	movf	??___flmul,w
  3061     05B6  07C2               	addwf	___flmul@prod,f
  3062     05B7  0837               	movf	??___flmul+1,w
  3063     05B8  1103               	clrz
  3064     05B9  1803               	skipnc
  3065     05BA  3E01               	addlw	1
  3066     05BB  1903               	skipnz
  3067     05BC  2DBE               	goto	u2531
  3068     05BD  07C3               	addwf	___flmul@prod+1,f
  3069     05BE                     u2531:
  3070     05BE  0838               	movf	??___flmul+2,w
  3071     05BF  1103               	clrz
  3072     05C0  1803               	skipnc
  3073     05C1  3E01               	addlw	1
  3074     05C2  1903               	skipnz
  3075     05C3  2DC5               	goto	u2532
  3076     05C4  07C4               	addwf	___flmul@prod+2,f
  3077     05C5                     u2532:
  3078     05C5  0839               	movf	??___flmul+3,w
  3079     05C6  1103               	clrz
  3080     05C7  1803               	skipnc
  3081     05C8  3E01               	addlw	1
  3082     05C9  1903               	skipnz
  3083     05CA  2DCC               	goto	u2533
  3084     05CB  07C5               	addwf	___flmul@prod+3,f
  3085     05CC                     u2533:
  3086     05CC                     l1680:
  3087     05CC  3008               	movlw	8
  3088     05CD  00B6               	movwf	??___flmul
  3089     05CE                     u2545:
  3090     05CE  1003               	clrc
  3091     05CF  0DBC               	rlf	___flmul@grs,f
  3092     05D0  0DBD               	rlf	___flmul@grs+1,f
  3093     05D1  0DBE               	rlf	___flmul@grs+2,f
  3094     05D2  0DBF               	rlf	___flmul@grs+3,f
  3095     05D3  0BB6               	decfsz	??___flmul,f
  3096     05D4  2DCE               	goto	u2545
  3097     05D5                     l1682:
  3098     05D5  082F               	movf	___flmul@b+1,w
  3099     05D6  00F0               	movwf	__Umul8_16@multiplicand
  3100     05D7  0832               	movf	___flmul@a,w
  3101     05D8  120A  158A  245F  120A  118A  	fcall	__Umul8_16
  3102     05DD  0871               	movf	?__Umul8_16+1,w
  3103     05DE  1283               	bcf	3,5	;RP0=0, select bank0
  3104     05DF  1303               	bcf	3,6	;RP1=0, select bank0
  3105     05E0  00C7               	movwf	___flmul@temp+1
  3106     05E1  0870               	movf	?__Umul8_16,w
  3107     05E2  00C6               	movwf	___flmul@temp
  3108     05E3                     l1684:
  3109     05E3  0846               	movf	___flmul@temp,w
  3110     05E4  00B6               	movwf	??___flmul
  3111     05E5  0847               	movf	___flmul@temp+1,w
  3112     05E6  00B7               	movwf	??___flmul+1
  3113     05E7  01B8               	clrf	??___flmul+2
  3114     05E8  01B9               	clrf	??___flmul+3
  3115     05E9  0836               	movf	??___flmul,w
  3116     05EA  07BC               	addwf	___flmul@grs,f
  3117     05EB  0837               	movf	??___flmul+1,w
  3118     05EC  1103               	clrz
  3119     05ED  1803               	skipnc
  3120     05EE  3E01               	addlw	1
  3121     05EF  1903               	skipnz
  3122     05F0  2DF2               	goto	u2551
  3123     05F1  07BD               	addwf	___flmul@grs+1,f
  3124     05F2                     u2551:
  3125     05F2  0838               	movf	??___flmul+2,w
  3126     05F3  1103               	clrz
  3127     05F4  1803               	skipnc
  3128     05F5  3E01               	addlw	1
  3129     05F6  1903               	skipnz
  3130     05F7  2DF9               	goto	u2552
  3131     05F8  07BE               	addwf	___flmul@grs+2,f
  3132     05F9                     u2552:
  3133     05F9  0839               	movf	??___flmul+3,w
  3134     05FA  1103               	clrz
  3135     05FB  1803               	skipnc
  3136     05FC  3E01               	addlw	1
  3137     05FD  1903               	skipnz
  3138     05FE  2E00               	goto	u2553
  3139     05FF  07BF               	addwf	___flmul@grs+3,f
  3140     0600                     u2553:
  3141     0600                     l1686:
  3142     0600  082E               	movf	___flmul@b,w
  3143     0601  00F0               	movwf	__Umul8_16@multiplicand
  3144     0602  0833               	movf	___flmul@a+1,w
  3145     0603  120A  158A  245F  120A  118A  	fcall	__Umul8_16
  3146     0608  0871               	movf	?__Umul8_16+1,w
  3147     0609  1283               	bcf	3,5	;RP0=0, select bank0
  3148     060A  1303               	bcf	3,6	;RP1=0, select bank0
  3149     060B  00C7               	movwf	___flmul@temp+1
  3150     060C  0870               	movf	?__Umul8_16,w
  3151     060D  00C6               	movwf	___flmul@temp
  3152     060E                     l1688:
  3153     060E  0846               	movf	___flmul@temp,w
  3154     060F  00B6               	movwf	??___flmul
  3155     0610  0847               	movf	___flmul@temp+1,w
  3156     0611  00B7               	movwf	??___flmul+1
  3157     0612  01B8               	clrf	??___flmul+2
  3158     0613  01B9               	clrf	??___flmul+3
  3159     0614  0836               	movf	??___flmul,w
  3160     0615  07BC               	addwf	___flmul@grs,f
  3161     0616  0837               	movf	??___flmul+1,w
  3162     0617  1103               	clrz
  3163     0618  1803               	skipnc
  3164     0619  3E01               	addlw	1
  3165     061A  1903               	skipnz
  3166     061B  2E1D               	goto	u2561
  3167     061C  07BD               	addwf	___flmul@grs+1,f
  3168     061D                     u2561:
  3169     061D  0838               	movf	??___flmul+2,w
  3170     061E  1103               	clrz
  3171     061F  1803               	skipnc
  3172     0620  3E01               	addlw	1
  3173     0621  1903               	skipnz
  3174     0622  2E24               	goto	u2562
  3175     0623  07BE               	addwf	___flmul@grs+2,f
  3176     0624                     u2562:
  3177     0624  0839               	movf	??___flmul+3,w
  3178     0625  1103               	clrz
  3179     0626  1803               	skipnc
  3180     0627  3E01               	addlw	1
  3181     0628  1903               	skipnz
  3182     0629  2E2B               	goto	u2563
  3183     062A  07BF               	addwf	___flmul@grs+3,f
  3184     062B                     u2563:
  3185     062B                     l1690:
  3186     062B  3008               	movlw	8
  3187     062C  00B6               	movwf	??___flmul
  3188     062D                     u2575:
  3189     062D  1003               	clrc
  3190     062E  0DBC               	rlf	___flmul@grs,f
  3191     062F  0DBD               	rlf	___flmul@grs+1,f
  3192     0630  0DBE               	rlf	___flmul@grs+2,f
  3193     0631  0DBF               	rlf	___flmul@grs+3,f
  3194     0632  0BB6               	decfsz	??___flmul,f
  3195     0633  2E2D               	goto	u2575
  3196     0634  082E               	movf	___flmul@b,w
  3197     0635  00F0               	movwf	__Umul8_16@multiplicand
  3198     0636  0832               	movf	___flmul@a,w
  3199     0637  120A  158A  245F  120A  118A  	fcall	__Umul8_16
  3200     063C  0871               	movf	?__Umul8_16+1,w
  3201     063D  1283               	bcf	3,5	;RP0=0, select bank0
  3202     063E  1303               	bcf	3,6	;RP1=0, select bank0
  3203     063F  00C7               	movwf	___flmul@temp+1
  3204     0640  0870               	movf	?__Umul8_16,w
  3205     0641  00C6               	movwf	___flmul@temp
  3206     0642                     l1692:
  3207     0642  0846               	movf	___flmul@temp,w
  3208     0643  00B6               	movwf	??___flmul
  3209     0644  0847               	movf	___flmul@temp+1,w
  3210     0645  00B7               	movwf	??___flmul+1
  3211     0646  01B8               	clrf	??___flmul+2
  3212     0647  01B9               	clrf	??___flmul+3
  3213     0648  0836               	movf	??___flmul,w
  3214     0649  07BC               	addwf	___flmul@grs,f
  3215     064A  0837               	movf	??___flmul+1,w
  3216     064B  1103               	clrz
  3217     064C  1803               	skipnc
  3218     064D  3E01               	addlw	1
  3219     064E  1903               	skipnz
  3220     064F  2E51               	goto	u2581
  3221     0650  07BD               	addwf	___flmul@grs+1,f
  3222     0651                     u2581:
  3223     0651  0838               	movf	??___flmul+2,w
  3224     0652  1103               	clrz
  3225     0653  1803               	skipnc
  3226     0654  3E01               	addlw	1
  3227     0655  1903               	skipnz
  3228     0656  2E58               	goto	u2582
  3229     0657  07BE               	addwf	___flmul@grs+2,f
  3230     0658                     u2582:
  3231     0658  0839               	movf	??___flmul+3,w
  3232     0659  1103               	clrz
  3233     065A  1803               	skipnc
  3234     065B  3E01               	addlw	1
  3235     065C  1903               	skipnz
  3236     065D  2E5F               	goto	u2583
  3237     065E  07BF               	addwf	___flmul@grs+3,f
  3238     065F                     u2583:
  3239     065F                     l1694:
  3240     065F  082F               	movf	___flmul@b+1,w
  3241     0660  00F0               	movwf	__Umul8_16@multiplicand
  3242     0661  0834               	movf	___flmul@a+2,w
  3243     0662  120A  158A  245F  120A  118A  	fcall	__Umul8_16
  3244     0667  0871               	movf	?__Umul8_16+1,w
  3245     0668  1283               	bcf	3,5	;RP0=0, select bank0
  3246     0669  1303               	bcf	3,6	;RP1=0, select bank0
  3247     066A  00C7               	movwf	___flmul@temp+1
  3248     066B  0870               	movf	?__Umul8_16,w
  3249     066C  00C6               	movwf	___flmul@temp
  3250     066D  0846               	movf	___flmul@temp,w
  3251     066E  00B6               	movwf	??___flmul
  3252     066F  0847               	movf	___flmul@temp+1,w
  3253     0670  00B7               	movwf	??___flmul+1
  3254     0671  01B8               	clrf	??___flmul+2
  3255     0672  01B9               	clrf	??___flmul+3
  3256     0673  0836               	movf	??___flmul,w
  3257     0674  07C2               	addwf	___flmul@prod,f
  3258     0675  0837               	movf	??___flmul+1,w
  3259     0676  1103               	clrz
  3260     0677  1803               	skipnc
  3261     0678  3E01               	addlw	1
  3262     0679  1903               	skipnz
  3263     067A  2E7C               	goto	u2591
  3264     067B  07C3               	addwf	___flmul@prod+1,f
  3265     067C                     u2591:
  3266     067C  0838               	movf	??___flmul+2,w
  3267     067D  1103               	clrz
  3268     067E  1803               	skipnc
  3269     067F  3E01               	addlw	1
  3270     0680  1903               	skipnz
  3271     0681  2E83               	goto	u2592
  3272     0682  07C4               	addwf	___flmul@prod+2,f
  3273     0683                     u2592:
  3274     0683  0839               	movf	??___flmul+3,w
  3275     0684  1103               	clrz
  3276     0685  1803               	skipnc
  3277     0686  3E01               	addlw	1
  3278     0687  1903               	skipnz
  3279     0688  2E8A               	goto	u2593
  3280     0689  07C5               	addwf	___flmul@prod+3,f
  3281     068A                     u2593:
  3282     068A                     l1696:
  3283     068A  0830               	movf	___flmul@b+2,w
  3284     068B  00F0               	movwf	__Umul8_16@multiplicand
  3285     068C  0833               	movf	___flmul@a+1,w
  3286     068D  120A  158A  245F  120A  118A  	fcall	__Umul8_16
  3287     0692  0871               	movf	?__Umul8_16+1,w
  3288     0693  1283               	bcf	3,5	;RP0=0, select bank0
  3289     0694  1303               	bcf	3,6	;RP1=0, select bank0
  3290     0695  00C7               	movwf	___flmul@temp+1
  3291     0696  0870               	movf	?__Umul8_16,w
  3292     0697  00C6               	movwf	___flmul@temp
  3293     0698                     l1698:
  3294     0698  0846               	movf	___flmul@temp,w
  3295     0699  00B6               	movwf	??___flmul
  3296     069A  0847               	movf	___flmul@temp+1,w
  3297     069B  00B7               	movwf	??___flmul+1
  3298     069C  01B8               	clrf	??___flmul+2
  3299     069D  01B9               	clrf	??___flmul+3
  3300     069E  0836               	movf	??___flmul,w
  3301     069F  07C2               	addwf	___flmul@prod,f
  3302     06A0  0837               	movf	??___flmul+1,w
  3303     06A1  1103               	clrz
  3304     06A2  1803               	skipnc
  3305     06A3  3E01               	addlw	1
  3306     06A4  1903               	skipnz
  3307     06A5  2EA7               	goto	u2601
  3308     06A6  07C3               	addwf	___flmul@prod+1,f
  3309     06A7                     u2601:
  3310     06A7  0838               	movf	??___flmul+2,w
  3311     06A8  1103               	clrz
  3312     06A9  1803               	skipnc
  3313     06AA  3E01               	addlw	1
  3314     06AB  1903               	skipnz
  3315     06AC  2EAE               	goto	u2602
  3316     06AD  07C4               	addwf	___flmul@prod+2,f
  3317     06AE                     u2602:
  3318     06AE  0839               	movf	??___flmul+3,w
  3319     06AF  1103               	clrz
  3320     06B0  1803               	skipnc
  3321     06B1  3E01               	addlw	1
  3322     06B2  1903               	skipnz
  3323     06B3  2EB5               	goto	u2603
  3324     06B4  07C5               	addwf	___flmul@prod+3,f
  3325     06B5                     u2603:
  3326     06B5  0830               	movf	___flmul@b+2,w
  3327     06B6  00F0               	movwf	__Umul8_16@multiplicand
  3328     06B7  0834               	movf	___flmul@a+2,w
  3329     06B8  120A  158A  245F  120A  118A  	fcall	__Umul8_16
  3330     06BD  0871               	movf	?__Umul8_16+1,w
  3331     06BE  1283               	bcf	3,5	;RP0=0, select bank0
  3332     06BF  1303               	bcf	3,6	;RP1=0, select bank0
  3333     06C0  00C7               	movwf	___flmul@temp+1
  3334     06C1  0870               	movf	?__Umul8_16,w
  3335     06C2  00C6               	movwf	___flmul@temp
  3336     06C3                     l1700:
  3337     06C3  0846               	movf	___flmul@temp,w
  3338     06C4  00B6               	movwf	??___flmul
  3339     06C5  0847               	movf	___flmul@temp+1,w
  3340     06C6  00B7               	movwf	??___flmul+1
  3341     06C7  01B8               	clrf	??___flmul+2
  3342     06C8  01B9               	clrf	??___flmul+3
  3343     06C9  3008               	movlw	8
  3344     06CA                     u2615:
  3345     06CA  1003               	clrc
  3346     06CB  0DB6               	rlf	??___flmul,f
  3347     06CC  0DB7               	rlf	??___flmul+1,f
  3348     06CD  0DB8               	rlf	??___flmul+2,f
  3349     06CE  0DB9               	rlf	??___flmul+3,f
  3350     06CF                     u2610:
  3351     06CF  3EFF               	addlw	-1
  3352     06D0  1D03               	skipz
  3353     06D1  2ECA               	goto	u2615
  3354     06D2  0836               	movf	??___flmul,w
  3355     06D3  07C2               	addwf	___flmul@prod,f
  3356     06D4  0837               	movf	??___flmul+1,w
  3357     06D5  1103               	clrz
  3358     06D6  1803               	skipnc
  3359     06D7  3E01               	addlw	1
  3360     06D8  1903               	skipnz
  3361     06D9  2EDB               	goto	u2621
  3362     06DA  07C3               	addwf	___flmul@prod+1,f
  3363     06DB                     u2621:
  3364     06DB  0838               	movf	??___flmul+2,w
  3365     06DC  1103               	clrz
  3366     06DD  1803               	skipnc
  3367     06DE  3E01               	addlw	1
  3368     06DF  1903               	skipnz
  3369     06E0  2EE2               	goto	u2622
  3370     06E1  07C4               	addwf	___flmul@prod+2,f
  3371     06E2                     u2622:
  3372     06E2  0839               	movf	??___flmul+3,w
  3373     06E3  1103               	clrz
  3374     06E4  1803               	skipnc
  3375     06E5  3E01               	addlw	1
  3376     06E6  1903               	skipnz
  3377     06E7  2EE9               	goto	u2623
  3378     06E8  07C5               	addwf	___flmul@prod+3,f
  3379     06E9                     u2623:
  3380     06E9                     l1702:
  3381     06E9  083C               	movf	___flmul@grs,w
  3382     06EA  00B6               	movwf	??___flmul
  3383     06EB  083D               	movf	___flmul@grs+1,w
  3384     06EC  00B7               	movwf	??___flmul+1
  3385     06ED  083E               	movf	___flmul@grs+2,w
  3386     06EE  00B8               	movwf	??___flmul+2
  3387     06EF  083F               	movf	___flmul@grs+3,w
  3388     06F0  00B9               	movwf	??___flmul+3
  3389     06F1  3018               	movlw	24
  3390     06F2                     u2635:
  3391     06F2  1003               	clrc
  3392     06F3  0CB9               	rrf	??___flmul+3,f
  3393     06F4  0CB8               	rrf	??___flmul+2,f
  3394     06F5  0CB7               	rrf	??___flmul+1,f
  3395     06F6  0CB6               	rrf	??___flmul,f
  3396     06F7                     u2630:
  3397     06F7  3EFF               	addlw	-1
  3398     06F8  1D03               	skipz
  3399     06F9  2EF2               	goto	u2635
  3400     06FA  0836               	movf	??___flmul,w
  3401     06FB  07C2               	addwf	___flmul@prod,f
  3402     06FC  0837               	movf	??___flmul+1,w
  3403     06FD  1103               	clrz
  3404     06FE  1803               	skipnc
  3405     06FF  3E01               	addlw	1
  3406     0700  1903               	skipnz
  3407     0701  2F03               	goto	u2641
  3408     0702  07C3               	addwf	___flmul@prod+1,f
  3409     0703                     u2641:
  3410     0703  0838               	movf	??___flmul+2,w
  3411     0704  1103               	clrz
  3412     0705  1803               	skipnc
  3413     0706  3E01               	addlw	1
  3414     0707  1903               	skipnz
  3415     0708  2F0A               	goto	u2642
  3416     0709  07C4               	addwf	___flmul@prod+2,f
  3417     070A                     u2642:
  3418     070A  0839               	movf	??___flmul+3,w
  3419     070B  1103               	clrz
  3420     070C  1803               	skipnc
  3421     070D  3E01               	addlw	1
  3422     070E  1903               	skipnz
  3423     070F  2F11               	goto	u2643
  3424     0710  07C5               	addwf	___flmul@prod+3,f
  3425     0711                     u2643:
  3426     0711                     l1704:
  3427     0711  3008               	movlw	8
  3428     0712  00B6               	movwf	??___flmul
  3429     0713                     u2655:
  3430     0713  1003               	clrc
  3431     0714  0DBC               	rlf	___flmul@grs,f
  3432     0715  0DBD               	rlf	___flmul@grs+1,f
  3433     0716  0DBE               	rlf	___flmul@grs+2,f
  3434     0717  0DBF               	rlf	___flmul@grs+3,f
  3435     0718  0BB6               	decfsz	??___flmul,f
  3436     0719  2F13               	goto	u2655
  3437     071A                     l1706:
  3438     071A  0841               	movf	___flmul@bexp,w
  3439     071B  0740               	addwf	___flmul@aexp,w
  3440     071C  00B6               	movwf	??___flmul
  3441     071D  01B7               	clrf	??___flmul+1
  3442     071E  0DB7               	rlf	??___flmul+1,f
  3443     071F  0836               	movf	??___flmul,w
  3444     0720  3E82               	addlw	130
  3445     0721  00C6               	movwf	___flmul@temp
  3446     0722  0837               	movf	??___flmul+1,w
  3447     0723  1803               	skipnc
  3448     0724  3E01               	addlw	1
  3449     0725  3EFF               	addlw	255
  3450     0726  00C7               	movwf	___flmul@temp+1
  3451     0727  2F45               	goto	l1718
  3452     0728                     l1708:
  3453     0728  3001               	movlw	1
  3454     0729  00B6               	movwf	??___flmul
  3455     072A                     u2665:
  3456     072A  1003               	clrc
  3457     072B  0DC2               	rlf	___flmul@prod,f
  3458     072C  0DC3               	rlf	___flmul@prod+1,f
  3459     072D  0DC4               	rlf	___flmul@prod+2,f
  3460     072E  0DC5               	rlf	___flmul@prod+3,f
  3461     072F  0BB6               	decfsz	??___flmul,f
  3462     0730  2F2A               	goto	u2665
  3463     0731                     l1710:
  3464     0731  1FBF               	btfss	___flmul@grs+3,7
  3465     0732  2F34               	goto	u2671
  3466     0733  2F35               	goto	u2670
  3467     0734                     u2671:
  3468     0734  2F36               	goto	l1714
  3469     0735                     u2670:
  3470     0735                     l1712:
  3471     0735  1442               	bsf	___flmul@prod,0
  3472     0736                     l1714:
  3473     0736  3001               	movlw	1
  3474     0737  00B6               	movwf	??___flmul
  3475     0738                     u2685:
  3476     0738  1003               	clrc
  3477     0739  0DBC               	rlf	___flmul@grs,f
  3478     073A  0DBD               	rlf	___flmul@grs+1,f
  3479     073B  0DBE               	rlf	___flmul@grs+2,f
  3480     073C  0DBF               	rlf	___flmul@grs+3,f
  3481     073D  0BB6               	decfsz	??___flmul,f
  3482     073E  2F38               	goto	u2685
  3483     073F                     l1716:
  3484     073F  30FF               	movlw	255
  3485     0740  07C6               	addwf	___flmul@temp,f
  3486     0741  1803               	skipnc
  3487     0742  0AC7               	incf	___flmul@temp+1,f
  3488     0743  30FF               	movlw	255
  3489     0744  07C7               	addwf	___flmul@temp+1,f
  3490     0745                     l1718:
  3491     0745  1FC4               	btfss	___flmul@prod+2,7
  3492     0746  2F48               	goto	u2691
  3493     0747  2F49               	goto	u2690
  3494     0748                     u2691:
  3495     0748  2F28               	goto	l1708
  3496     0749                     u2690:
  3497     0749                     l1720:
  3498     0749  01C0               	clrf	___flmul@aexp
  3499     074A                     l1722:
  3500     074A  1FBF               	btfss	___flmul@grs+3,7
  3501     074B  2F4D               	goto	u2701
  3502     074C  2F4E               	goto	u2700
  3503     074D                     u2701:
  3504     074D  2F6A               	goto	l1730
  3505     074E                     u2700:
  3506     074E                     l1724:
  3507     074E  30FF               	movlw	255
  3508     074F  053C               	andwf	___flmul@grs,w
  3509     0750  00B6               	movwf	??___flmul
  3510     0751  30FF               	movlw	255
  3511     0752  053D               	andwf	___flmul@grs+1,w
  3512     0753  00B7               	movwf	??___flmul+1
  3513     0754  30FF               	movlw	255
  3514     0755  053E               	andwf	___flmul@grs+2,w
  3515     0756  00B8               	movwf	??___flmul+2
  3516     0757  307F               	movlw	127
  3517     0758  053F               	andwf	___flmul@grs+3,w
  3518     0759  00B9               	movwf	??___flmul+3
  3519     075A  0839               	movf	??___flmul+3,w
  3520     075B  0438               	iorwf	??___flmul+2,w
  3521     075C  0437               	iorwf	??___flmul+1,w
  3522     075D  0436               	iorwf	??___flmul,w
  3523     075E  1903               	skipnz
  3524     075F  2F61               	goto	u2711
  3525     0760  2F62               	goto	u2710
  3526     0761                     u2711:
  3527     0761  2F65               	goto	l525
  3528     0762                     u2710:
  3529     0762                     l1726:
  3530     0762  3001               	movlw	1
  3531     0763  00C0               	movwf	___flmul@aexp
  3532     0764  2F6A               	goto	l1730
  3533     0765                     l525:
  3534     0765  1C42               	btfss	___flmul@prod,0
  3535     0766  2F68               	goto	u2721
  3536     0767  2F69               	goto	u2720
  3537     0768                     u2721:
  3538     0768  2F6A               	goto	l1730
  3539     0769                     u2720:
  3540     0769  2F62               	goto	l1726
  3541     076A                     l1730:
  3542     076A  0840               	movf	___flmul@aexp,w
  3543     076B  1903               	btfsc	3,2
  3544     076C  2F6E               	goto	u2731
  3545     076D  2F6F               	goto	u2730
  3546     076E                     u2731:
  3547     076E  2FA0               	goto	l1740
  3548     076F                     u2730:
  3549     076F                     l1732:
  3550     076F  3001               	movlw	1
  3551     0770  07C2               	addwf	___flmul@prod,f
  3552     0771  3000               	movlw	0
  3553     0772  1803               	skipnc
  3554     0773  3001               	movlw	1
  3555     0774  07C3               	addwf	___flmul@prod+1,f
  3556     0775  3000               	movlw	0
  3557     0776  1803               	skipnc
  3558     0777  3001               	movlw	1
  3559     0778  07C4               	addwf	___flmul@prod+2,f
  3560     0779  3000               	movlw	0
  3561     077A  1803               	skipnc
  3562     077B  3001               	movlw	1
  3563     077C  07C5               	addwf	___flmul@prod+3,f
  3564     077D                     l1734:
  3565     077D  1C45               	btfss	___flmul@prod+3,0
  3566     077E  2F80               	goto	u2741
  3567     077F  2F81               	goto	u2740
  3568     0780                     u2741:
  3569     0780  2FA0               	goto	l1740
  3570     0781                     u2740:
  3571     0781                     l1736:
  3572     0781  0842               	movf	___flmul@prod,w
  3573     0782  00B6               	movwf	??___flmul
  3574     0783  0843               	movf	___flmul@prod+1,w
  3575     0784  00B7               	movwf	??___flmul+1
  3576     0785  0844               	movf	___flmul@prod+2,w
  3577     0786  00B8               	movwf	??___flmul+2
  3578     0787  0845               	movf	___flmul@prod+3,w
  3579     0788  00B9               	movwf	??___flmul+3
  3580     0789  3001               	movlw	1
  3581     078A  00BA               	movwf	??___flmul+4
  3582     078B                     u2755:
  3583     078B  0D39               	rlf	??___flmul+3,w
  3584     078C  0CB9               	rrf	??___flmul+3,f
  3585     078D  0CB8               	rrf	??___flmul+2,f
  3586     078E  0CB7               	rrf	??___flmul+1,f
  3587     078F  0CB6               	rrf	??___flmul,f
  3588     0790                     u2750:
  3589     0790  0BBA               	decfsz	??___flmul+4,f
  3590     0791  2F8B               	goto	u2755
  3591     0792  0839               	movf	??___flmul+3,w
  3592     0793  00C5               	movwf	___flmul@prod+3
  3593     0794  0838               	movf	??___flmul+2,w
  3594     0795  00C4               	movwf	___flmul@prod+2
  3595     0796  0837               	movf	??___flmul+1,w
  3596     0797  00C3               	movwf	___flmul@prod+1
  3597     0798  0836               	movf	??___flmul,w
  3598     0799  00C2               	movwf	___flmul@prod
  3599     079A                     l1738:
  3600     079A  3001               	movlw	1
  3601     079B  07C6               	addwf	___flmul@temp,f
  3602     079C  1803               	skipnc
  3603     079D  0AC7               	incf	___flmul@temp+1,f
  3604     079E  3000               	movlw	0
  3605     079F  07C7               	addwf	___flmul@temp+1,f
  3606     07A0                     l1740:
  3607     07A0  0847               	movf	___flmul@temp+1,w
  3608     07A1  3A80               	xorlw	128
  3609     07A2  00FF               	movwf	btemp+1
  3610     07A3  3080               	movlw	128
  3611     07A4  027F               	subwf	btemp+1,w
  3612     07A5  1D03               	skipz
  3613     07A6  2FA9               	goto	u2765
  3614     07A7  30FF               	movlw	255
  3615     07A8  0246               	subwf	___flmul@temp,w
  3616     07A9                     u2765:
  3617     07A9  1C03               	skipc
  3618     07AA  2FAC               	goto	u2761
  3619     07AB  2FAD               	goto	u2760
  3620     07AC                     u2761:
  3621     07AC  2FB8               	goto	l1744
  3622     07AD                     u2760:
  3623     07AD                     l1742:
  3624     07AD  307F               	movlw	127
  3625     07AE  1283               	bcf	3,5	;RP0=0, select bank0
  3626     07AF  1303               	bcf	3,6	;RP1=0, select bank0
  3627     07B0  00C5               	movwf	___flmul@prod+3
  3628     07B1  3080               	movlw	128
  3629     07B2  00C4               	movwf	___flmul@prod+2
  3630     07B3  3000               	movlw	0
  3631     07B4  00C3               	movwf	___flmul@prod+1
  3632     07B5  3000               	movlw	0
  3633     07B6  00C2               	movwf	___flmul@prod
  3634     07B7  2FE9               	goto	l531
  3635     07B8                     l1744:
  3636     07B8  1283               	bcf	3,5	;RP0=0, select bank0
  3637     07B9  1303               	bcf	3,6	;RP1=0, select bank0
  3638     07BA  0847               	movf	___flmul@temp+1,w
  3639     07BB  3A80               	xorlw	128
  3640     07BC  00FF               	movwf	btemp+1
  3641     07BD  3080               	movlw	128
  3642     07BE  027F               	subwf	btemp+1,w
  3643     07BF  1D03               	skipz
  3644     07C0  2FC3               	goto	u2775
  3645     07C1  3001               	movlw	1
  3646     07C2  0246               	subwf	___flmul@temp,w
  3647     07C3                     u2775:
  3648     07C3  1803               	skipnc
  3649     07C4  2FC6               	goto	u2771
  3650     07C5  2FC7               	goto	u2770
  3651     07C6                     u2771:
  3652     07C6  2FD3               	goto	l1750
  3653     07C7                     u2770:
  3654     07C7                     l1746:
  3655     07C7  3000               	movlw	0
  3656     07C8  1283               	bcf	3,5	;RP0=0, select bank0
  3657     07C9  1303               	bcf	3,6	;RP1=0, select bank0
  3658     07CA  00C5               	movwf	___flmul@prod+3
  3659     07CB  3000               	movlw	0
  3660     07CC  00C4               	movwf	___flmul@prod+2
  3661     07CD  3000               	movlw	0
  3662     07CE  00C3               	movwf	___flmul@prod+1
  3663     07CF  3000               	movlw	0
  3664     07D0  00C2               	movwf	___flmul@prod
  3665     07D1                     l1748:
  3666     07D1  01BB               	clrf	___flmul@sign
  3667     07D2  2FE9               	goto	l531
  3668     07D3                     l1750:
  3669     07D3  1283               	bcf	3,5	;RP0=0, select bank0
  3670     07D4  1303               	bcf	3,6	;RP1=0, select bank0
  3671     07D5  0846               	movf	___flmul@temp,w
  3672     07D6  00C1               	movwf	___flmul@bexp
  3673     07D7  30FF               	movlw	255
  3674     07D8  05C2               	andwf	___flmul@prod,f
  3675     07D9  30FF               	movlw	255
  3676     07DA  05C3               	andwf	___flmul@prod+1,f
  3677     07DB  307F               	movlw	127
  3678     07DC  05C4               	andwf	___flmul@prod+2,f
  3679     07DD  3000               	movlw	0
  3680     07DE  05C5               	andwf	___flmul@prod+3,f
  3681     07DF                     l1752:
  3682     07DF  1C41               	btfss	___flmul@bexp,0
  3683     07E0  2FE2               	goto	u2781
  3684     07E1  2FE3               	goto	u2780
  3685     07E2                     u2781:
  3686     07E2  2FE4               	goto	l1756
  3687     07E3                     u2780:
  3688     07E3                     l1754:
  3689     07E3  17C4               	bsf	___flmul@prod+2,7
  3690     07E4                     l1756:
  3691     07E4  0841               	movf	___flmul@bexp,w
  3692     07E5  00B6               	movwf	??___flmul
  3693     07E6  1003               	clrc
  3694     07E7  0C36               	rrf	??___flmul,w
  3695     07E8  00C5               	movwf	___flmul@prod+3
  3696     07E9                     l531:
  3697     07E9  083B               	movf	___flmul@sign,w
  3698     07EA  04C5               	iorwf	___flmul@prod+3,f
  3699     07EB                     l1758:
  3700     07EB  0845               	movf	___flmul@prod+3,w
  3701     07EC  00B1               	movwf	?___flmul+3
  3702     07ED  0844               	movf	___flmul@prod+2,w
  3703     07EE  00B0               	movwf	?___flmul+2
  3704     07EF  0843               	movf	___flmul@prod+1,w
  3705     07F0  00AF               	movwf	?___flmul+1
  3706     07F1  0842               	movf	___flmul@prod,w
  3707     07F2  00AE               	movwf	?___flmul
  3708     07F3                     l519:
  3709     07F3  0008               	return
  3710     07F4                     __end_of___flmul:
  3711                           
  3712                           	psect	text8
  3713     0C5F                     __ptext8:	
  3714 ;; *************** function __Umul8_16 *****************
  3715 ;; Defined at:
  3716 ;;		line 4 in file "C:\Program Files\Microchip\xc8\v2.50\pic\sources\c99\common\Umul8_16.c"
  3717 ;; Parameters:    Size  Location     Type
  3718 ;;  multiplier      1    wreg     unsigned char 
  3719 ;;  multiplicand    1    0[COMMON] unsigned char 
  3720 ;; Auto vars:     Size  Location     Type
  3721 ;;  multiplier      1    8[COMMON] unsigned char 
  3722 ;;  word_mpld       2    6[COMMON] unsigned short 
  3723 ;;  product         2    4[COMMON] unsigned short 
  3724 ;; Return value:  Size  Location     Type
  3725 ;;                  2    0[COMMON] unsigned int 
  3726 ;; Registers used:
  3727 ;;		wreg, status,2, status,0
  3728 ;; Tracked objects:
  3729 ;;		On entry : 0/0
  3730 ;;		On exit  : 0/0
  3731 ;;		Unchanged: 0/0
  3732 ;; Data sizes:     COMMON   BANK0   BANK1   BANK3   BANK2
  3733 ;;      Params:         2       0       0       0       0
  3734 ;;      Locals:         5       0       0       0       0
  3735 ;;      Temps:          2       0       0       0       0
  3736 ;;      Totals:         9       0       0       0       0
  3737 ;;Total ram usage:        9 bytes
  3738 ;; Hardware stack levels used: 1
  3739 ;; This function calls:
  3740 ;;		Nothing
  3741 ;; This function is called by:
  3742 ;;		___flmul
  3743 ;; This function uses a non-reentrant model
  3744 ;;
  3745                           
  3746     0C5F                     __Umul8_16:	
  3747                           ;psect for function __Umul8_16
  3748                           
  3749                           
  3750                           ;incstack = 0
  3751                           ; Regs used in __Umul8_16: [wreg+status,2+status,0]
  3752                           ;__Umul8_16@multiplier stored from wreg
  3753     0C5F  00F8               	movwf	__Umul8_16@multiplier
  3754     0C60                     l1204:
  3755     0C60  01F4               	clrf	__Umul8_16@product
  3756     0C61  01F5               	clrf	__Umul8_16@product+1
  3757     0C62                     l1206:
  3758     0C62  0870               	movf	__Umul8_16@multiplicand,w
  3759     0C63  00F2               	movwf	??__Umul8_16
  3760     0C64  01F3               	clrf	??__Umul8_16+1
  3761     0C65  0872               	movf	??__Umul8_16,w
  3762     0C66  00F6               	movwf	__Umul8_16@word_mpld
  3763     0C67  0873               	movf	??__Umul8_16+1,w
  3764     0C68  00F7               	movwf	__Umul8_16@word_mpld+1
  3765     0C69                     l1208:
  3766     0C69  1C78               	btfss	__Umul8_16@multiplier,0
  3767     0C6A  2C6C               	goto	u1471
  3768     0C6B  2C6D               	goto	u1470
  3769     0C6C                     u1471:
  3770     0C6C  2C73               	goto	l538
  3771     0C6D                     u1470:
  3772     0C6D                     l1210:
  3773     0C6D  0876               	movf	__Umul8_16@word_mpld,w
  3774     0C6E  07F4               	addwf	__Umul8_16@product,f
  3775     0C6F  1803               	skipnc
  3776     0C70  0AF5               	incf	__Umul8_16@product+1,f
  3777     0C71  0877               	movf	__Umul8_16@word_mpld+1,w
  3778     0C72  07F5               	addwf	__Umul8_16@product+1,f
  3779     0C73                     l538:
  3780     0C73  3001               	movlw	1
  3781     0C74                     u1485:
  3782     0C74  1003               	clrc
  3783     0C75  0DF6               	rlf	__Umul8_16@word_mpld,f
  3784     0C76  0DF7               	rlf	__Umul8_16@word_mpld+1,f
  3785     0C77  3EFF               	addlw	-1
  3786     0C78  1D03               	skipz
  3787     0C79  2C74               	goto	u1485
  3788     0C7A  1003               	clrc
  3789     0C7B  0CF8               	rrf	__Umul8_16@multiplier,f
  3790     0C7C                     l1212:
  3791     0C7C  0878               	movf	__Umul8_16@multiplier,w
  3792     0C7D  1D03               	btfss	3,2
  3793     0C7E  2C80               	goto	u1491
  3794     0C7F  2C81               	goto	u1490
  3795     0C80                     u1491:
  3796     0C80  2C69               	goto	l1208
  3797     0C81                     u1490:
  3798     0C81                     l1214:
  3799     0C81  0875               	movf	__Umul8_16@product+1,w
  3800     0C82  00F1               	movwf	?__Umul8_16+1
  3801     0C83  0874               	movf	__Umul8_16@product,w
  3802     0C84  00F0               	movwf	?__Umul8_16
  3803     0C85                     l540:
  3804     0C85  0008               	return
  3805     0C86                     __end_of__Umul8_16:
  3806                           
  3807                           	psect	text9
  3808     0016                     __ptext9:	
  3809 ;; *************** function ___fldiv *****************
  3810 ;; Defined at:
  3811 ;;		line 8 in file "C:\Program Files\Microchip\xc8\v2.50\pic\sources\c99\common\sprcdiv.c"
  3812 ;; Parameters:    Size  Location     Type
  3813 ;;  a               4   40[BANK0 ] unsigned int 
  3814 ;;  b               4   44[BANK0 ] unsigned int 
  3815 ;; Auto vars:     Size  Location     Type
  3816 ;;  grs             4   60[BANK0 ] unsigned long 
  3817 ;;  rem             4   53[BANK0 ] unsigned long 
  3818 ;;  new_exp         2   58[BANK0 ] short 
  3819 ;;  aexp            1   65[BANK0 ] unsigned char 
  3820 ;;  bexp            1   64[BANK0 ] unsigned char 
  3821 ;;  sign            1   57[BANK0 ] unsigned char 
  3822 ;; Return value:  Size  Location     Type
  3823 ;;                  4   40[BANK0 ] unsigned char 
  3824 ;; Registers used:
  3825 ;;		wreg, status,2, status,0, btemp+1
  3826 ;; Tracked objects:
  3827 ;;		On entry : 0/0
  3828 ;;		On exit  : 0/0
  3829 ;;		Unchanged: 0/0
  3830 ;; Data sizes:     COMMON   BANK0   BANK1   BANK3   BANK2
  3831 ;;      Params:         0       8       0       0       0
  3832 ;;      Locals:         0      13       0       0       0
  3833 ;;      Temps:          0       5       0       0       0
  3834 ;;      Totals:         0      26       0       0       0
  3835 ;;Total ram usage:       26 bytes
  3836 ;; Hardware stack levels used: 1
  3837 ;; This function calls:
  3838 ;;		Nothing
  3839 ;; This function is called by:
  3840 ;;		_PWM_SetFreq
  3841 ;;		_PWM_SetDutyCycles
  3842 ;; This function uses a non-reentrant model
  3843 ;;
  3844                           
  3845     0016                     ___fldiv:	
  3846                           ;psect for function ___fldiv
  3847                           
  3848     0016                     l1476:	
  3849                           ;incstack = 0
  3850                           ; Regs used in ___fldiv: [wreg+status,2+status,0+btemp+1]
  3851                           
  3852     0016  1283               	bcf	3,5	;RP0=0, select bank0
  3853     0017  1303               	bcf	3,6	;RP1=0, select bank0
  3854     0018  084F               	movf	___fldiv@b+3,w
  3855     0019  00D9               	movwf	___fldiv@sign
  3856     001A                     l1478:
  3857     001A  3080               	movlw	128
  3858     001B  05D9               	andwf	___fldiv@sign,f
  3859     001C                     l1480:
  3860     001C  084F               	movf	___fldiv@b+3,w
  3861     001D  00D0               	movwf	??___fldiv
  3862     001E  0750               	addwf	??___fldiv,w
  3863     001F  00E0               	movwf	___fldiv@bexp
  3864     0020                     l1482:
  3865     0020  1FCE               	btfss	___fldiv@b+2,7
  3866     0021  2823               	goto	u2131
  3867     0022  2824               	goto	u2130
  3868     0023                     u2131:
  3869     0023  2825               	goto	l1486
  3870     0024                     u2130:
  3871     0024                     l1484:
  3872     0024  1460               	bsf	___fldiv@bexp,0
  3873     0025                     l1486:
  3874     0025  0860               	movf	___fldiv@bexp,w
  3875     0026  1903               	btfsc	3,2
  3876     0027  2829               	goto	u2141
  3877     0028  282A               	goto	u2140
  3878     0029                     u2141:
  3879     0029  283A               	goto	l1496
  3880     002A                     u2140:
  3881     002A                     l1488:
  3882     002A  0A60               	incf	___fldiv@bexp,w
  3883     002B  1D03               	btfss	3,2
  3884     002C  282E               	goto	u2151
  3885     002D  282F               	goto	u2150
  3886     002E                     u2151:
  3887     002E  2837               	goto	l1492
  3888     002F                     u2150:
  3889     002F                     l1490:
  3890     002F  3000               	movlw	0
  3891     0030  00CF               	movwf	___fldiv@b+3
  3892     0031  3000               	movlw	0
  3893     0032  00CE               	movwf	___fldiv@b+2
  3894     0033  3000               	movlw	0
  3895     0034  00CD               	movwf	___fldiv@b+1
  3896     0035  3000               	movlw	0
  3897     0036  00CC               	movwf	___fldiv@b
  3898     0037                     l1492:
  3899     0037  17CE               	bsf	___fldiv@b+2,7
  3900     0038                     l1494:
  3901     0038  01CF               	clrf	___fldiv@b+3
  3902     0039  2842               	goto	l1498
  3903     003A                     l1496:
  3904     003A  3000               	movlw	0
  3905     003B  00CF               	movwf	___fldiv@b+3
  3906     003C  3000               	movlw	0
  3907     003D  00CE               	movwf	___fldiv@b+2
  3908     003E  3000               	movlw	0
  3909     003F  00CD               	movwf	___fldiv@b+1
  3910     0040  3000               	movlw	0
  3911     0041  00CC               	movwf	___fldiv@b
  3912     0042                     l1498:
  3913     0042  084B               	movf	___fldiv@a+3,w
  3914     0043  3980               	andlw	128
  3915     0044  06D9               	xorwf	___fldiv@sign,f
  3916     0045                     l1500:
  3917     0045  084B               	movf	___fldiv@a+3,w
  3918     0046  00D0               	movwf	??___fldiv
  3919     0047  0750               	addwf	??___fldiv,w
  3920     0048  00E1               	movwf	___fldiv@aexp
  3921     0049                     l1502:
  3922     0049  1FCA               	btfss	___fldiv@a+2,7
  3923     004A  284C               	goto	u2161
  3924     004B  284D               	goto	u2160
  3925     004C                     u2161:
  3926     004C  284E               	goto	l1506
  3927     004D                     u2160:
  3928     004D                     l1504:
  3929     004D  1461               	bsf	___fldiv@aexp,0
  3930     004E                     l1506:
  3931     004E  0861               	movf	___fldiv@aexp,w
  3932     004F  1903               	btfsc	3,2
  3933     0050  2852               	goto	u2171
  3934     0051  2853               	goto	u2170
  3935     0052                     u2171:
  3936     0052  2863               	goto	l1516
  3937     0053                     u2170:
  3938     0053                     l1508:
  3939     0053  0A61               	incf	___fldiv@aexp,w
  3940     0054  1D03               	btfss	3,2
  3941     0055  2857               	goto	u2181
  3942     0056  2858               	goto	u2180
  3943     0057                     u2181:
  3944     0057  2860               	goto	l1512
  3945     0058                     u2180:
  3946     0058                     l1510:
  3947     0058  3000               	movlw	0
  3948     0059  00CB               	movwf	___fldiv@a+3
  3949     005A  3000               	movlw	0
  3950     005B  00CA               	movwf	___fldiv@a+2
  3951     005C  3000               	movlw	0
  3952     005D  00C9               	movwf	___fldiv@a+1
  3953     005E  3000               	movlw	0
  3954     005F  00C8               	movwf	___fldiv@a
  3955     0060                     l1512:
  3956     0060  17CA               	bsf	___fldiv@a+2,7
  3957     0061                     l1514:
  3958     0061  01CB               	clrf	___fldiv@a+3
  3959     0062  286B               	goto	l479
  3960     0063                     l1516:
  3961     0063  3000               	movlw	0
  3962     0064  00CB               	movwf	___fldiv@a+3
  3963     0065  3000               	movlw	0
  3964     0066  00CA               	movwf	___fldiv@a+2
  3965     0067  3000               	movlw	0
  3966     0068  00C9               	movwf	___fldiv@a+1
  3967     0069  3000               	movlw	0
  3968     006A  00C8               	movwf	___fldiv@a
  3969     006B                     l479:
  3970     006B  084B               	movf	___fldiv@a+3,w
  3971     006C  044A               	iorwf	___fldiv@a+2,w
  3972     006D  0449               	iorwf	___fldiv@a+1,w
  3973     006E  0448               	iorwf	___fldiv@a,w
  3974     006F  1D03               	skipz
  3975     0070  2872               	goto	u2191
  3976     0071  2873               	goto	u2190
  3977     0072                     u2191:
  3978     0072  288A               	goto	l1526
  3979     0073                     u2190:
  3980     0073                     l1518:
  3981     0073  3000               	movlw	0
  3982     0074  00CF               	movwf	___fldiv@b+3
  3983     0075  3000               	movlw	0
  3984     0076  00CE               	movwf	___fldiv@b+2
  3985     0077  3000               	movlw	0
  3986     0078  00CD               	movwf	___fldiv@b+1
  3987     0079  3000               	movlw	0
  3988     007A  00CC               	movwf	___fldiv@b
  3989     007B  3080               	movlw	128
  3990     007C  04CE               	iorwf	___fldiv@b+2,f
  3991     007D  307F               	movlw	127
  3992     007E  04CF               	iorwf	___fldiv@b+3,f
  3993     007F                     l1520:
  3994     007F  0859               	movf	___fldiv@sign,w
  3995     0080  04CF               	iorwf	___fldiv@b+3,f
  3996     0081                     l1522:
  3997     0081  084F               	movf	___fldiv@b+3,w
  3998     0082  00CB               	movwf	?___fldiv+3
  3999     0083  084E               	movf	___fldiv@b+2,w
  4000     0084  00CA               	movwf	?___fldiv+2
  4001     0085  084D               	movf	___fldiv@b+1,w
  4002     0086  00C9               	movwf	?___fldiv+1
  4003     0087  084C               	movf	___fldiv@b,w
  4004     0088  00C8               	movwf	?___fldiv
  4005     0089  29DF               	goto	l481
  4006     008A                     l1526:
  4007     008A  0860               	movf	___fldiv@bexp,w
  4008     008B  1D03               	btfss	3,2
  4009     008C  288E               	goto	u2201
  4010     008D  288F               	goto	u2200
  4011     008E                     u2201:
  4012     008E  2898               	goto	l1532
  4013     008F                     u2200:
  4014     008F                     l1528:
  4015     008F  3000               	movlw	0
  4016     0090  00CB               	movwf	?___fldiv+3
  4017     0091  3000               	movlw	0
  4018     0092  00CA               	movwf	?___fldiv+2
  4019     0093  3000               	movlw	0
  4020     0094  00C9               	movwf	?___fldiv+1
  4021     0095  3000               	movlw	0
  4022     0096  00C8               	movwf	?___fldiv
  4023     0097  29DF               	goto	l481
  4024     0098                     l1532:
  4025     0098  0860               	movf	___fldiv@bexp,w
  4026     0099  00D0               	movwf	??___fldiv
  4027     009A  01D1               	clrf	??___fldiv+1
  4028     009B  0851               	movf	??___fldiv+1,w
  4029     009C  00D3               	movwf	??___fldiv+3
  4030     009D  0861               	movf	___fldiv@aexp,w
  4031     009E  0250               	subwf	??___fldiv,w
  4032     009F  00D2               	movwf	??___fldiv+2
  4033     00A0  1C03               	skipc
  4034     00A1  03D3               	decf	??___fldiv+3,f
  4035     00A2  0852               	movf	??___fldiv+2,w
  4036     00A3  3E7F               	addlw	127
  4037     00A4  00DA               	movwf	___fldiv@new_exp
  4038     00A5  0853               	movf	??___fldiv+3,w
  4039     00A6  1803               	skipnc
  4040     00A7  3E01               	addlw	1
  4041     00A8  3E00               	addlw	0
  4042     00A9  00DB               	movwf	___fldiv@new_exp+1
  4043     00AA                     l1534:
  4044     00AA  084F               	movf	___fldiv@b+3,w
  4045     00AB  00D8               	movwf	___fldiv@rem+3
  4046     00AC  084E               	movf	___fldiv@b+2,w
  4047     00AD  00D7               	movwf	___fldiv@rem+2
  4048     00AE  084D               	movf	___fldiv@b+1,w
  4049     00AF  00D6               	movwf	___fldiv@rem+1
  4050     00B0  084C               	movf	___fldiv@b,w
  4051     00B1  00D5               	movwf	___fldiv@rem
  4052     00B2                     l1536:
  4053     00B2  3000               	movlw	0
  4054     00B3  00CF               	movwf	___fldiv@b+3
  4055     00B4  3000               	movlw	0
  4056     00B5  00CE               	movwf	___fldiv@b+2
  4057     00B6  3000               	movlw	0
  4058     00B7  00CD               	movwf	___fldiv@b+1
  4059     00B8  3000               	movlw	0
  4060     00B9  00CC               	movwf	___fldiv@b
  4061     00BA                     l1538:
  4062     00BA  3000               	movlw	0
  4063     00BB  00DF               	movwf	___fldiv@grs+3
  4064     00BC  3000               	movlw	0
  4065     00BD  00DE               	movwf	___fldiv@grs+2
  4066     00BE  3000               	movlw	0
  4067     00BF  00DD               	movwf	___fldiv@grs+1
  4068     00C0  3000               	movlw	0
  4069     00C1  00DC               	movwf	___fldiv@grs
  4070     00C2                     l1540:
  4071     00C2  01E1               	clrf	___fldiv@aexp
  4072     00C3  290C               	goto	l1560
  4073     00C4                     l1542:
  4074     00C4  0861               	movf	___fldiv@aexp,w
  4075     00C5  1903               	btfsc	3,2
  4076     00C6  28C8               	goto	u2211
  4077     00C7  28C9               	goto	u2210
  4078     00C8                     u2211:
  4079     00C8  28E9               	goto	l1552
  4080     00C9                     u2210:
  4081     00C9                     l1544:
  4082     00C9  3001               	movlw	1
  4083     00CA  00D0               	movwf	??___fldiv
  4084     00CB                     u2225:
  4085     00CB  1003               	clrc
  4086     00CC  0DD5               	rlf	___fldiv@rem,f
  4087     00CD  0DD6               	rlf	___fldiv@rem+1,f
  4088     00CE  0DD7               	rlf	___fldiv@rem+2,f
  4089     00CF  0DD8               	rlf	___fldiv@rem+3,f
  4090     00D0  0BD0               	decfsz	??___fldiv,f
  4091     00D1  28CB               	goto	u2225
  4092     00D2  3001               	movlw	1
  4093     00D3  00D0               	movwf	??___fldiv
  4094     00D4                     u2235:
  4095     00D4  1003               	clrc
  4096     00D5  0DCC               	rlf	___fldiv@b,f
  4097     00D6  0DCD               	rlf	___fldiv@b+1,f
  4098     00D7  0DCE               	rlf	___fldiv@b+2,f
  4099     00D8  0DCF               	rlf	___fldiv@b+3,f
  4100     00D9  0BD0               	decfsz	??___fldiv,f
  4101     00DA  28D4               	goto	u2235
  4102     00DB                     l1546:
  4103     00DB  1FDF               	btfss	___fldiv@grs+3,7
  4104     00DC  28DE               	goto	u2241
  4105     00DD  28DF               	goto	u2240
  4106     00DE                     u2241:
  4107     00DE  28E0               	goto	l1550
  4108     00DF                     u2240:
  4109     00DF                     l1548:
  4110     00DF  144C               	bsf	___fldiv@b,0
  4111     00E0                     l1550:
  4112     00E0  3001               	movlw	1
  4113     00E1  00D0               	movwf	??___fldiv
  4114     00E2                     u2255:
  4115     00E2  1003               	clrc
  4116     00E3  0DDC               	rlf	___fldiv@grs,f
  4117     00E4  0DDD               	rlf	___fldiv@grs+1,f
  4118     00E5  0DDE               	rlf	___fldiv@grs+2,f
  4119     00E6  0DDF               	rlf	___fldiv@grs+3,f
  4120     00E7  0BD0               	decfsz	??___fldiv,f
  4121     00E8  28E2               	goto	u2255
  4122     00E9                     l1552:
  4123     00E9  084B               	movf	___fldiv@a+3,w
  4124     00EA  0258               	subwf	___fldiv@rem+3,w
  4125     00EB  1D03               	skipz
  4126     00EC  28F7               	goto	u2265
  4127     00ED  084A               	movf	___fldiv@a+2,w
  4128     00EE  0257               	subwf	___fldiv@rem+2,w
  4129     00EF  1D03               	skipz
  4130     00F0  28F7               	goto	u2265
  4131     00F1  0849               	movf	___fldiv@a+1,w
  4132     00F2  0256               	subwf	___fldiv@rem+1,w
  4133     00F3  1D03               	skipz
  4134     00F4  28F7               	goto	u2265
  4135     00F5  0848               	movf	___fldiv@a,w
  4136     00F6  0255               	subwf	___fldiv@rem,w
  4137     00F7                     u2265:
  4138     00F7  1C03               	skipc
  4139     00F8  28FA               	goto	u2261
  4140     00F9  28FB               	goto	u2260
  4141     00FA                     u2261:
  4142     00FA  290A               	goto	l1558
  4143     00FB                     u2260:
  4144     00FB                     l1554:
  4145     00FB  175F               	bsf	___fldiv@grs+3,6
  4146     00FC                     l1556:
  4147     00FC  0848               	movf	___fldiv@a,w
  4148     00FD  02D5               	subwf	___fldiv@rem,f
  4149     00FE  0849               	movf	___fldiv@a+1,w
  4150     00FF  1C03               	skipc
  4151     0100  0F49               	incfsz	___fldiv@a+1,w
  4152     0101  02D6               	subwf	___fldiv@rem+1,f
  4153     0102  084A               	movf	___fldiv@a+2,w
  4154     0103  1C03               	skipc
  4155     0104  0F4A               	incfsz	___fldiv@a+2,w
  4156     0105  02D7               	subwf	___fldiv@rem+2,f
  4157     0106  084B               	movf	___fldiv@a+3,w
  4158     0107  1C03               	skipc
  4159     0108  0F4B               	incfsz	___fldiv@a+3,w
  4160     0109  02D8               	subwf	___fldiv@rem+3,f
  4161     010A                     l1558:
  4162     010A  3001               	movlw	1
  4163     010B  07E1               	addwf	___fldiv@aexp,f
  4164     010C                     l1560:
  4165     010C  301A               	movlw	26
  4166     010D  0261               	subwf	___fldiv@aexp,w
  4167     010E  1C03               	skipc
  4168     010F  2911               	goto	u2271
  4169     0110  2912               	goto	u2270
  4170     0111                     u2271:
  4171     0111  28C4               	goto	l1542
  4172     0112                     u2270:
  4173     0112                     l1562:
  4174     0112  0858               	movf	___fldiv@rem+3,w
  4175     0113  0457               	iorwf	___fldiv@rem+2,w
  4176     0114  0456               	iorwf	___fldiv@rem+1,w
  4177     0115  0455               	iorwf	___fldiv@rem,w
  4178     0116  1903               	skipnz
  4179     0117  2919               	goto	u2281
  4180     0118  291A               	goto	u2280
  4181     0119                     u2281:
  4182     0119  2939               	goto	l1576
  4183     011A                     u2280:
  4184     011A                     l1564:
  4185     011A  145C               	bsf	___fldiv@grs,0
  4186     011B  2939               	goto	l1576
  4187     011C                     l1566:
  4188     011C  3001               	movlw	1
  4189     011D  00D0               	movwf	??___fldiv
  4190     011E                     u2295:
  4191     011E  1003               	clrc
  4192     011F  0DCC               	rlf	___fldiv@b,f
  4193     0120  0DCD               	rlf	___fldiv@b+1,f
  4194     0121  0DCE               	rlf	___fldiv@b+2,f
  4195     0122  0DCF               	rlf	___fldiv@b+3,f
  4196     0123  0BD0               	decfsz	??___fldiv,f
  4197     0124  291E               	goto	u2295
  4198     0125                     l1568:
  4199     0125  1FDF               	btfss	___fldiv@grs+3,7
  4200     0126  2928               	goto	u2301
  4201     0127  2929               	goto	u2300
  4202     0128                     u2301:
  4203     0128  292A               	goto	l1572
  4204     0129                     u2300:
  4205     0129                     l1570:
  4206     0129  144C               	bsf	___fldiv@b,0
  4207     012A                     l1572:
  4208     012A  3001               	movlw	1
  4209     012B  00D0               	movwf	??___fldiv
  4210     012C                     u2315:
  4211     012C  1003               	clrc
  4212     012D  0DDC               	rlf	___fldiv@grs,f
  4213     012E  0DDD               	rlf	___fldiv@grs+1,f
  4214     012F  0DDE               	rlf	___fldiv@grs+2,f
  4215     0130  0DDF               	rlf	___fldiv@grs+3,f
  4216     0131  0BD0               	decfsz	??___fldiv,f
  4217     0132  292C               	goto	u2315
  4218     0133                     l1574:
  4219     0133  30FF               	movlw	255
  4220     0134  07DA               	addwf	___fldiv@new_exp,f
  4221     0135  1803               	skipnc
  4222     0136  0ADB               	incf	___fldiv@new_exp+1,f
  4223     0137  30FF               	movlw	255
  4224     0138  07DB               	addwf	___fldiv@new_exp+1,f
  4225     0139                     l1576:
  4226     0139  1FCE               	btfss	___fldiv@b+2,7
  4227     013A  293C               	goto	u2321
  4228     013B  293D               	goto	u2320
  4229     013C                     u2321:
  4230     013C  291C               	goto	l1566
  4231     013D                     u2320:
  4232     013D                     l1578:
  4233     013D  01E1               	clrf	___fldiv@aexp
  4234     013E                     l1580:
  4235     013E  1FDF               	btfss	___fldiv@grs+3,7
  4236     013F  2941               	goto	u2331
  4237     0140  2942               	goto	u2330
  4238     0141                     u2331:
  4239     0141  295E               	goto	l1588
  4240     0142                     u2330:
  4241     0142                     l1582:
  4242     0142  30FF               	movlw	255
  4243     0143  055C               	andwf	___fldiv@grs,w
  4244     0144  00D0               	movwf	??___fldiv
  4245     0145  30FF               	movlw	255
  4246     0146  055D               	andwf	___fldiv@grs+1,w
  4247     0147  00D1               	movwf	??___fldiv+1
  4248     0148  30FF               	movlw	255
  4249     0149  055E               	andwf	___fldiv@grs+2,w
  4250     014A  00D2               	movwf	??___fldiv+2
  4251     014B  307F               	movlw	127
  4252     014C  055F               	andwf	___fldiv@grs+3,w
  4253     014D  00D3               	movwf	??___fldiv+3
  4254     014E  0853               	movf	??___fldiv+3,w
  4255     014F  0452               	iorwf	??___fldiv+2,w
  4256     0150  0451               	iorwf	??___fldiv+1,w
  4257     0151  0450               	iorwf	??___fldiv,w
  4258     0152  1903               	skipnz
  4259     0153  2955               	goto	u2341
  4260     0154  2956               	goto	u2340
  4261     0155                     u2341:
  4262     0155  2959               	goto	l495
  4263     0156                     u2340:
  4264     0156                     l1584:
  4265     0156  3001               	movlw	1
  4266     0157  00E1               	movwf	___fldiv@aexp
  4267     0158  295E               	goto	l1588
  4268     0159                     l495:
  4269     0159  1C4C               	btfss	___fldiv@b,0
  4270     015A  295C               	goto	u2351
  4271     015B  295D               	goto	u2350
  4272     015C                     u2351:
  4273     015C  295E               	goto	l1588
  4274     015D                     u2350:
  4275     015D  2956               	goto	l1584
  4276     015E                     l1588:
  4277     015E  0861               	movf	___fldiv@aexp,w
  4278     015F  1903               	btfsc	3,2
  4279     0160  2962               	goto	u2361
  4280     0161  2963               	goto	u2360
  4281     0162                     u2361:
  4282     0162  2994               	goto	l1598
  4283     0163                     u2360:
  4284     0163                     l1590:
  4285     0163  3001               	movlw	1
  4286     0164  07CC               	addwf	___fldiv@b,f
  4287     0165  3000               	movlw	0
  4288     0166  1803               	skipnc
  4289     0167  3001               	movlw	1
  4290     0168  07CD               	addwf	___fldiv@b+1,f
  4291     0169  3000               	movlw	0
  4292     016A  1803               	skipnc
  4293     016B  3001               	movlw	1
  4294     016C  07CE               	addwf	___fldiv@b+2,f
  4295     016D  3000               	movlw	0
  4296     016E  1803               	skipnc
  4297     016F  3001               	movlw	1
  4298     0170  07CF               	addwf	___fldiv@b+3,f
  4299     0171                     l1592:
  4300     0171  1C4F               	btfss	___fldiv@b+3,0
  4301     0172  2974               	goto	u2371
  4302     0173  2975               	goto	u2370
  4303     0174                     u2371:
  4304     0174  2994               	goto	l1598
  4305     0175                     u2370:
  4306     0175                     l1594:
  4307     0175  084C               	movf	___fldiv@b,w
  4308     0176  00D0               	movwf	??___fldiv
  4309     0177  084D               	movf	___fldiv@b+1,w
  4310     0178  00D1               	movwf	??___fldiv+1
  4311     0179  084E               	movf	___fldiv@b+2,w
  4312     017A  00D2               	movwf	??___fldiv+2
  4313     017B  084F               	movf	___fldiv@b+3,w
  4314     017C  00D3               	movwf	??___fldiv+3
  4315     017D  3001               	movlw	1
  4316     017E  00D4               	movwf	??___fldiv+4
  4317     017F                     u2385:
  4318     017F  0D53               	rlf	??___fldiv+3,w
  4319     0180  0CD3               	rrf	??___fldiv+3,f
  4320     0181  0CD2               	rrf	??___fldiv+2,f
  4321     0182  0CD1               	rrf	??___fldiv+1,f
  4322     0183  0CD0               	rrf	??___fldiv,f
  4323     0184                     u2380:
  4324     0184  0BD4               	decfsz	??___fldiv+4,f
  4325     0185  297F               	goto	u2385
  4326     0186  0853               	movf	??___fldiv+3,w
  4327     0187  00CF               	movwf	___fldiv@b+3
  4328     0188  0852               	movf	??___fldiv+2,w
  4329     0189  00CE               	movwf	___fldiv@b+2
  4330     018A  0851               	movf	??___fldiv+1,w
  4331     018B  00CD               	movwf	___fldiv@b+1
  4332     018C  0850               	movf	??___fldiv,w
  4333     018D  00CC               	movwf	___fldiv@b
  4334     018E                     l1596:
  4335     018E  3001               	movlw	1
  4336     018F  07DA               	addwf	___fldiv@new_exp,f
  4337     0190  1803               	skipnc
  4338     0191  0ADB               	incf	___fldiv@new_exp+1,f
  4339     0192  3000               	movlw	0
  4340     0193  07DB               	addwf	___fldiv@new_exp+1,f
  4341     0194                     l1598:
  4342     0194  085B               	movf	___fldiv@new_exp+1,w
  4343     0195  3A80               	xorlw	128
  4344     0196  00FF               	movwf	btemp+1
  4345     0197  3080               	movlw	128
  4346     0198  027F               	subwf	btemp+1,w
  4347     0199  1D03               	skipz
  4348     019A  299D               	goto	u2395
  4349     019B  30FF               	movlw	255
  4350     019C  025A               	subwf	___fldiv@new_exp,w
  4351     019D                     u2395:
  4352     019D  1C03               	skipc
  4353     019E  29A0               	goto	u2391
  4354     019F  29A1               	goto	u2390
  4355     01A0                     u2391:
  4356     01A0  29AF               	goto	l1602
  4357     01A1                     u2390:
  4358     01A1                     l1600:
  4359     01A1  30FF               	movlw	255
  4360     01A2  1283               	bcf	3,5	;RP0=0, select bank0
  4361     01A3  1303               	bcf	3,6	;RP1=0, select bank0
  4362     01A4  00DA               	movwf	___fldiv@new_exp
  4363     01A5  3000               	movlw	0
  4364     01A6  00DB               	movwf	___fldiv@new_exp+1
  4365     01A7  3000               	movlw	0
  4366     01A8  00CF               	movwf	___fldiv@b+3
  4367     01A9  3000               	movlw	0
  4368     01AA  00CE               	movwf	___fldiv@b+2
  4369     01AB  3000               	movlw	0
  4370     01AC  00CD               	movwf	___fldiv@b+1
  4371     01AD  3000               	movlw	0
  4372     01AE  00CC               	movwf	___fldiv@b
  4373     01AF                     l1602:
  4374     01AF  1283               	bcf	3,5	;RP0=0, select bank0
  4375     01B0  1303               	bcf	3,6	;RP1=0, select bank0
  4376     01B1  085B               	movf	___fldiv@new_exp+1,w
  4377     01B2  3A80               	xorlw	128
  4378     01B3  00FF               	movwf	btemp+1
  4379     01B4  3080               	movlw	128
  4380     01B5  027F               	subwf	btemp+1,w
  4381     01B6  1D03               	skipz
  4382     01B7  29BA               	goto	u2405
  4383     01B8  3001               	movlw	1
  4384     01B9  025A               	subwf	___fldiv@new_exp,w
  4385     01BA                     u2405:
  4386     01BA  1803               	skipnc
  4387     01BB  29BD               	goto	u2401
  4388     01BC  29BE               	goto	u2400
  4389     01BD                     u2401:
  4390     01BD  29CB               	goto	l501
  4391     01BE                     u2400:
  4392     01BE                     l1604:
  4393     01BE  1283               	bcf	3,5	;RP0=0, select bank0
  4394     01BF  1303               	bcf	3,6	;RP1=0, select bank0
  4395     01C0  01DA               	clrf	___fldiv@new_exp
  4396     01C1  01DB               	clrf	___fldiv@new_exp+1
  4397     01C2                     l1606:
  4398     01C2  3000               	movlw	0
  4399     01C3  00CF               	movwf	___fldiv@b+3
  4400     01C4  3000               	movlw	0
  4401     01C5  00CE               	movwf	___fldiv@b+2
  4402     01C6  3000               	movlw	0
  4403     01C7  00CD               	movwf	___fldiv@b+1
  4404     01C8  3000               	movlw	0
  4405     01C9  00CC               	movwf	___fldiv@b
  4406     01CA                     l1608:
  4407     01CA  01D9               	clrf	___fldiv@sign
  4408     01CB                     l501:
  4409     01CB  1283               	bcf	3,5	;RP0=0, select bank0
  4410     01CC  1303               	bcf	3,6	;RP1=0, select bank0
  4411     01CD  085A               	movf	___fldiv@new_exp,w
  4412     01CE  00E0               	movwf	___fldiv@bexp
  4413     01CF                     l1610:
  4414     01CF  1C60               	btfss	___fldiv@bexp,0
  4415     01D0  29D2               	goto	u2411
  4416     01D1  29D3               	goto	u2410
  4417     01D2                     u2411:
  4418     01D2  29D5               	goto	l1614
  4419     01D3                     u2410:
  4420     01D3                     l1612:
  4421     01D3  17CE               	bsf	___fldiv@b+2,7
  4422     01D4  29D7               	goto	l503
  4423     01D5                     l1614:
  4424     01D5  307F               	movlw	127
  4425     01D6  05CE               	andwf	___fldiv@b+2,f
  4426     01D7                     l503:
  4427     01D7  0860               	movf	___fldiv@bexp,w
  4428     01D8  00D0               	movwf	??___fldiv
  4429     01D9  1003               	clrc
  4430     01DA  0C50               	rrf	??___fldiv,w
  4431     01DB  00CF               	movwf	___fldiv@b+3
  4432     01DC  0859               	movf	___fldiv@sign,w
  4433     01DD  04CF               	iorwf	___fldiv@b+3,f
  4434     01DE  2881               	goto	l1522
  4435     01DF                     l481:
  4436     01DF  0008               	return
  4437     01E0                     __end_of___fldiv:
  4438     0002                     ___latbits      equ	2
  4439     007E                     btemp           set	126	;btemp
  4440     007E                     wtemp0          set	126
  4441                           
  4442                           	psect	config
  4443                           
  4444                           ;Config register CONFIG @ 0x2007
  4445                           ;	Oscillator Selection bits
  4446                           ;	FOSC = HS, HS oscillator
  4447                           ;	Watchdog Timer Enable bit
  4448                           ;	WDTE = OFF, WDT disabled
  4449                           ;	Power-up Timer Enable bit
  4450                           ;	PWRTE = OFF, PWRT disabled
  4451                           ;	Brown-out Reset Enable bit
  4452                           ;	BOREN = OFF, BOR disabled
  4453                           ;	Low-Voltage (Single-Supply) In-Circuit Serial Programming Enable bit
  4454                           ;	LVP = OFF, RB3 is digital I/O, HV on MCLR must be used for programming
  4455                           ;	Data EEPROM Memory Code Protection bit
  4456                           ;	CPD = OFF, Data EEPROM code protection off
  4457                           ;	Flash Program Memory Write Enable bits
  4458                           ;	WRT = OFF, Write protection off; all program memory may be written to by EECON control
  4459                           ;	In-Circuit Debugger Mode bit
  4460                           ;	DEBUG = 0x1, unprogrammed default
  4461                           ;	Flash Program Memory Code Protection bit
  4462                           ;	CP = OFF, Code protection off
  4463     2007                     	org	8199
  4464     2007  3F3A               	dw	16186

Data Sizes:
    Strings     0
    Constant    0
    Data        1
    BSS         0
    Persistent  8
    Stack       0

Auto Spaces:
    Space          Size  Autos    Used
    COMMON           14     14      14
    BANK0            80     80      80
    BANK1            80     27      36
    BANK3            96      0       0
    BANK2            96      0       0

Pointer List with Targets:

    None.

Critical Paths under _main in COMMON

    _PWM_SetFreq->___lldiv
    ___xxtofl->___lldiv

Critical Paths under _main in BANK0

    _PWM_SetFreq->___fltol
    ___fladd->___fldiv
    _PWM_SetDutyCycles->___fltol
    ___fltol->___fladd
    ___flmul->___xxtofl
    ___fldiv->___flmul

Critical Paths under _main in BANK1

    _main->_PWM_SetDutyCycles
    _PWM_SetFreq->___fltol
    _PWM_SetDutyCycles->___fltol
    ___fltol->___fladd

Critical Paths under _main in BANK3

    None.

Critical Paths under _main in BANK2

    None.

Call Graph Tables:

 ---------------------------------------------------------------------------------
 (Depth) Function   	        Calls       Base Space   Used Autos Params    Refs
 ---------------------------------------------------------------------------------
 (0) _main                                                 0     0      0    8935
                  _PWM_SetDutyCycles
                        _PWM_SetFreq
 ---------------------------------------------------------------------------------
 (1) _PWM_SetFreq                                          6     2      4    5507
                                             16 BANK1      6     2      4
                            ___fladd
                            ___fldiv
                            ___flmul
                            ___fltol
                            ___lldiv
                           ___xxtofl
 ---------------------------------------------------------------------------------
 (2) ___lldiv                                             14     6      8     164
                                              0 COMMON    14     6      8
 ---------------------------------------------------------------------------------
 (2) ___fladd                                             20    12      8    1988
                                             66 BANK0     12     4      8
                                              0 BANK1      8     8      0
                            ___fldiv (ARG)
                            ___flmul (ARG)
 ---------------------------------------------------------------------------------
 (1) _PWM_SetDutyCycles                                   11    11      0    3428
                                             16 BANK1     11    11      0
                            ___fldiv
                            ___flmul
                            ___fltol
                           ___xxtofl
 ---------------------------------------------------------------------------------
 (2) ___xxtofl                                            14    10      4     338
                                              0 BANK0     14    10      4
                            ___lldiv (ARG)
 ---------------------------------------------------------------------------------
 (2) ___fltol                                             10     6      4     231
                                             78 BANK0      2     2      0
                                              8 BANK1      8     4      4
                            ___fladd (ARG)
                            ___fldiv (ARG)
                            ___flmul (ARG)
 ---------------------------------------------------------------------------------
 (2) ___flmul                                             26    18      8    1612
                                             14 BANK0     26    18      8
                          __Umul8_16
                           ___xxtofl (ARG)
 ---------------------------------------------------------------------------------
 (3) __Umul8_16                                            9     7      2     139
                                              0 COMMON     9     7      2
 ---------------------------------------------------------------------------------
 (2) ___fldiv                                             26    18      8    1128
                                             40 BANK0     26    18      8
                            ___flmul (ARG)
                           ___xxtofl (ARG)
 ---------------------------------------------------------------------------------
 Estimated maximum stack depth 3
 ---------------------------------------------------------------------------------

 Call Graph Graphs:

 _main (ROOT)
   _PWM_SetDutyCycles
     ___fldiv
       ___flmul (ARG)
         __Umul8_16
         ___xxtofl (ARG)
           ___lldiv (ARG)
       ___xxtofl (ARG)
     ___flmul
     ___fltol
       ___fladd (ARG)
         ___fldiv (ARG)
         ___flmul (ARG)
       ___fldiv (ARG)
       ___flmul (ARG)
     ___xxtofl
   _PWM_SetFreq
     ___fladd
     ___fldiv
     ___flmul
     ___fltol
     ___lldiv
     ___xxtofl

Address spaces:
Name               Size   Autos  Total    Usage
BANK3               96      0       0      0.0%
BITBANK3            96      0       0      0.0%
BANK2               96      0       0      0.0%
BITBANK2            96      0       0      0.0%
BANK1               80     27      36     45.0%
BITBANK1            80      0       0      0.0%
BANK0               80     80      80    100.0%
BITBANK0            80      0       0      0.0%
COMMON              14     14      14    100.0%
BITCOMMON           14      0       0      0.0%
DATA                 0      0     130      0.0%
STACK                0      0       0      0.0%


Microchip Technology PIC Macro Assembler V2.50 build 20240725155939 
Symbol Table                                                                                   Thu Nov 14 11:24:37 2024

                ___fldiv@aexp 0061                  ___fldiv@bexp 0060               PWM_SetFreq@f_hz 00B0  
                ___fldiv@sign 0059                            l33 0EF2                            l27 0C5B  
                          l36 0FFF                            l28 0C5B           __Umul8_16@word_mpld 0076  
                         l323 0D5E                           l316 0D75                           l501 01CB  
                         l326 0D75                           l158 0CE9                           l503 01D7  
                         l423 0245                           l418 0210                           l531 07E9  
                         l427 02D6                           l540 0C85                           l444 03DC  
                         l436 04B1                           l525 0765                           l429 02A5  
                         l454 042B                           l519 07F3                           l448 0408  
                         l481 01DF                           l465 04A3                           l457 0483  
                         l538 0C73                           l466 04B1                           l563 0D9A  
                         l564 0DAB                           l565 0E2B                           l495 0159  
                         l479 006B                           l576 0DF5                           l577 0E01  
                         l569 0DD9                           _PR2 0092                   _PWM_SetFreq 0E2C  
                ___flmul@aexp 0040                  ___flmul@bexp 0041                  ___flmul@sign 003B  
                ___flmul@temp 0046                  ___flmul@prod 0042          PWM_SetFreq@PR2_value 00B4  
                ___fltol@exp1 006F                          l1210 0C6D                          l1212 0C7C  
                        l1204 0C60                          l1300 0212                          l1220 0C96  
                        l1214 0C81                          l1206 0C62                          l1310 0227  
                        l1302 0214                          l1230 0CC3                          l1222 0C99  
                        l1208 0C69                          l1400 0328                          l1320 023B  
                        l1312 0228                          l1304 021A                          l1232 0CD1  
                        l1224 0CA4                          l1250 0D19                          l1242 0CEA  
                        l1410 03BA                          l1402 032D                          l1330 0253  
                        l1314 022D                          l1322 023D                          l1306 021B  
                        l1234 0CD2                          l1226 0CA8                          l1218 0C86  
                        l1500 0045                          l1252 0D1C                          l1244 0CF7  
                        l1412 03BF                          l1404 0343                          l1340 025D  
                        l1332 0255                          l1324 024B                          l1316 0232  
                        l1308 0223                          l1236 0CDB                          l1228 0CB1  
                        l1510 0058                          l1502 0049                          l1254 0D24  
                        l1430 0410                          l1422 03F2                          l1406 03B5  
                        l1414 03CE                          l1350 0267                          l1342 025F  
                        l1334 0257                          l1326 024F                          l1318 023A  
                        l1238 0CE1                          l1600 01A1                          l1520 007F  
                        l1512 0060                          l1504 004D                          l1272 0D4F  
                        l1264 0D34                          l1256 0D28                          l1248 0D02  
                        l1440 041E                          l1432 0412                          l1424 0401  
                        l1416 03E4                          l1408 03B7                          l1360 0270  
                        l1352 0269                          l1344 0261                          l1336 0259  
                        l1328 0251                          l1280 01E4                          l1610 01CF  
                        l1602 01AF                          l1522 0081                          l1514 0061  
                        l1506 004E                          l1274 0D63                          l1258 0D2C  
                        l1266 0D48                          l1450 0435                          l1442 0422  
                        l1434 0417                          l1426 0407                          l1418 03E9  
                        l1370 02BA                          l1362 028D                          l1354 026B  
                        l1346 0263                          l1338 025B                          l1290 01F8  
                        l1282 01E6                          l1612 01D3                          l1604 01BE  
                        l1540 00C2                          l1532 0098                          l1508 0053  
                        l1516 0063                          l1700 06C3                          l1620 04B2  
                        l1276 0D68                          l1460 048D                          l1452 0443  
                        l1444 0428                          l1428 040C                          l1436 0419  
                        l1380 02DF                          l1372 02BB                          l1364 02A9  
                        l1356 026D                          l1348 0265                          l1292 01FD  
                        l1284 01EE                          l1614 01D5                          l1606 01C2  
                        l1550 00E0                          l1542 00C4                          l1534 00AA  
                        l1518 0073                          l1526 008A                          l1710 0731  
                        l1702 06E9                          l1630 04C1                          l1622 04B6  
                        l1470 04A1                          l1462 0495                          l1454 0447  
                        l1390 0307                          l1438 041D                          l1374 02CA  
                        l1366 02B4                          l1358 026F                          l1294 0205  
                        l1286 01F2                          l1278 01E0                          l1608 01CA  
                        l1544 00C9                          l1552 00E9                          l1560 010C  
                        l1536 00B2                          l1528 008F                          l1480 001C  
                        l1720 0749                          l1712 0735                          l1704 0711  
                        l1640 04DD                          l1632 04C6                          l1624 04B8  
                        l1800 0E23                          l1472 04AC                          l1464 049A  
                        l1456 0481                          l1448 0430                          l1392 0312  
                        l1384 02E8                          l1368 02B6                          l1376 02CE  
                        l1296 0206                          l1288 01F3                          l1570 0129  
                        l1562 0112                          l1554 00FB                          l1546 00DB  
                        l1538 00BA                          l1490 002F                          l1482 0020  
                        l1730 076A                          l1722 074A                          l1714 0736  
                        l1706 071A                          l1650 04EE                          l1642 04E0  
                        l1634 04CB                          l1626 04BC                          l1474 04B0  
                        l1466 049B                          l1458 0488                          l1394 0314  
                        l1386 02FF                          l1378 02DA                          l1298 0208  
                        l1810 0E3F                          l1580 013E                          l1572 012A  
                        l1564 011A                          l1556 00FC                          l1548 00DF  
                        l1492 0037                          l1484 0024                          l1476 0016  
                        l1732 076F                          l1740 07A0                          l1724 074E  
                        l1716 073F                          l1708 0728                          l1660 050A  
                        l1652 04F3                          l1644 04E4                          l1636 04D3  
                        l1628 04C0                          l1820 0FDC                          l1468 049F  
                        l1396 0318                          l1388 0303                          l1812 0E7C  
                        l1804 0E2C                          l1590 0163                          l1582 0142  
                        l1574 0133                          l1566 011C                          l1558 010A  
                        l1494 0038                          l1486 0025                          l1478 001A  
                        l1750 07D3                          l1742 07AD                          l1734 077D  
                        l1726 0762                          l1718 0745                          l1670 0533  
                        l1662 050F                          l1654 04FB                          l1646 04E8  
                        l1638 04D5                          l1822 0FEE                          l1398 0319  
                        l1814 0EF0                          l1806 0E30                          l1592 0171  
                        l1584 0156                          l1568 0125                          l1576 0139  
                        l1488 002A                          l1496 003A                          l1752 07DF  
                        l1744 07B8                          l1736 0781                          l1680 05CC  
                        l1672 054E                          l1656 04FD                          l1648 04E9  
                        l1816 0EF6                          l1808 0E35                          l1824 0C45  
                        l1594 0175                          l1578 013D                          l1498 0042  
                        l1754 07E3                          l1746 07C7                          l1738 079A  
                        l1690 062B                          l1682 05D5                          l1674 056A  
                        l1666 0518                          l1658 0505                          l1770 0DA2  
                        l1762 0D79                          l1818 0FCE                          l1826 0C48  
                        l1596 018E                          l1588 015E                          l1756 07E4  
                        l1748 07D1                          l1692 0642                          l1684 05E3  
                        l1676 0594                          l1668 0526                          l1780 0DC2  
                        l1764 0D7E                          l1598 0194                          l1758 07EB  
                        l1694 065F                          l1686 0600                          l1678 05B0  
                        l1790 0DF9                          l1782 0DD0                          l1774 0DAE  
                        l1766 0D82                          l1696 068A                          l1688 060E  
                        l1792 0E03                          l1784 0DE0                          l1776 0DB9  
                        l1768 0D92                          l1698 0698                          l1794 0E19  
                        l1786 0DEB                          l1778 0DC0                          l1796 0E1E  
                        l1788 0DEF                          l1798 0E22                          u2000 041D  
                        u2001 041C                          u2010 0422                          u2011 0421  
                        u2100 049A                          u2020 0428                          u2101 0499  
                        u2021 0427                          u2110 049F                          u2030 042F  
                        u2111 049E                          u2031 042E                          u2200 008F  
                        u2120 04B0                          u2040 0435                          u2201 008E  
                        u2121 04AF                          u2041 0434                          u2210 00C9  
                        u2130 0024                          u2050 0447                          u2211 00C8  
                        u2131 0023                          u2051 0446                          u2300 0129  
                        u2140 002A                          u2060 0464                          u1500 0C96  
                        u2301 0128                          u2141 0029                          u1501 0C95  
                        u2150 002F                          u2070 0481                          u2151 002E  
                        u2071 0480                          u2400 01BE                          u2320 013D  
                        u2240 00DF                          u2160 004D                          u1600 0D33  
                        u2080 0488                          u1520 0CA8                          u2401 01BD  
                        u2321 013C                          u2241 00DE                          u2225 00CB  
                        u2161 004C                          u1601 0D32                          u2081 0487  
                        u2065 045F                          u1521 0CA7                          u2410 01D3  
                        u2330 0142                          u2170 0053                          u2090 048D  
                        u2411 01D2                          u2331 0141                          u2315 012C  
                        u2235 00D4                          u2171 0052                          u2091 048C  
                        u1515 0C9B                          u2340 0156                          u2260 00FB  
                        u2180 0058                          u2420 04C0                          u1620 0D47  
                        u1700 021A                          u1540 0CC3                          u2405 01BA  
                        u2341 0155                          u2261 00FA                          u2181 0057  
                        u2501 055C                          u2421 04BF                          u1621 0D46  
                        u1701 0219                          u1541 0CC2                          u2350 015D  
                        u2270 0112                          u2190 0073                          u1470 0C6D  
                        u2502 0563                          u2430 04C6                          u1630 0D4E  
                        u1710 0227                          u2351 015C                          u2271 0111  
                        u2255 00E2                          u2191 0072                          u1471 0C6C  
                        u2511 0578                          u2503 056A                          u2431 04C5  
                        u1631 0D4D                          u1615 0D35                          u1711 0226  
                        u1535 0CAA                          u2360 0163                          u2280 011A  
                        u2512 057F                          u2440 04CB                          u1800 02BA  
                        u1720 022D                          u1560 0CE1                          u2361 0162  
                        u2281 0119                          u2265 00F7                          u2601 06A7  
                        u2521 05A2                          u2513 0586                          u2441 04CA  
                        u1801 02B9                          u1721 022C                          u1561 0CE0  
                        u1545 0CBF                          u2370 0175                          u1490 0C81  
                        u2610 06CF                          u2602 06AE                          u2522 05A9  
                        u2450 04E8                          u1650 0D63                          u1570 0CF7  
                        u1730 0232                          u2371 0174                          u1491 0C80  
                        u2603 06B5                          u2531 05BE                          u2523 05B0  
                        u2451 04E7                          u1651 0D62                          u1571 0CF6  
                        u1731 0231                          u1555 0CD3                          u2380 0184  
                        u2700 074E                          u2532 05C5                          u2460 04EE  
                        u1660 0D68                          u1580 0D12                          u1900 0343  
                        u1820 02D6                          u1740 024B                          u1485 0C74  
                        u2701 074D                          u2621 06DB                          u2533 05CC  
                        u2461 04ED                          u1661 0D67                          u1645 0D53  
                        u1901 0342                          u1821 02D5                          u1741 024A  
                        u2390 01A1                          u2710 0762                          u2630 06F7  
                        u2622 06E2                          u2470 04F3                          u1590 0D2C  
                        u1830 02DA                          u1750 024F                          u1670 01F2  
                        u2391 01A0                          u2295 011E                          u2711 0761  
                        u2623 06E9                          u2615 06CA                          u2551 05F2  
                        u2471 04F2                          u1591 0D2B                          u1911 0372  
                        u1903 033F                          u1831 02D9                          u1815 02BF  
                        u1751 024E                          u1671 01F1                          u2720 0769  
                        u2552 05F9                          u2480 050A                          u2800 0D82  
                        u1920 0394                          u1912 0375                          u1840 02DF  
                        u1760 028D                          u1680 01F8                          u2385 017F  
                        u2721 0768                          u2641 0703                          u2561 061D  
                        u2553 0600                          u2545 05CE                          u2481 0509  
                        u1585 0D0D                          u2801 0D81                          u1921 0395  
                        u1913 037C                          u1841 02DE                          u1761 028C  
                        u1681 01F7                          u2730 076F                          u2642 070A  
                        u2562 0624                          u2490 050F                          u2810 0DA2  
                        u1930 03BF                          u1922 039A                          u1914 037F  
                        u1770 0298                          u1690 01FD                          u2395 019D  
                        u2731 076E                          u2643 0711                          u2635 06F2  
                        u2563 062B                          u2491 050E                          u2811 0DA1  
                        u1931 03BE                          u1923 039B                          u1915 0386  
                        u1851 02F1                          u1771 0296                          u1691 01FC  
                        u2740 0781                          u2900 0E0E                          u1940 03E4  
                        u1916 0389                          u1860 0303                          u1852 02F8  
                        u1780 0299                          u2741 0780                          u2581 0651  
                        u1941 03E3                          u1861 0302                          u1853 02FF  
                        u1765 0289                          u2750 0790                          u2670 0735  
                        u2582 0658                          u2910 0E1E                          u2830 0DBF  
                        u1950 03E9                          u1870 0307                          u1790 02A9  
                        u2671 0734                          u2655 0713                          u2591 067C  
                        u2583 065F                          u2575 062D                          u2911 0E1D  
                        u2831 0DBE                          u1951 03E8                          u1871 0306  
                        u1791 02A8                          u2760 07AD                          u2592 0683  
                        u2920 0E22                          u1880 0318                          u2761 07AC  
                        u2665 072A                          u2593 068A                          u2921 0E21  
                        u2905 0E09                          u2825 0DB1                          u1881 0317  
                        u2770 07C7                          u2690 0749                          u2850 0DDF  
                        u1970 0407                          u2771 07C6                          u2755 078B  
                        u2691 0748                          u2851 0DDE                          u1971 0406  
                        u2780 07E3                          u1980 040C                          u2781 07E2  
                        u2765 07A9                          u2685 0738                          u2845 0DD1  
                        u1981 040B                          u1965 03F6                          u2870 0DEF  
                        u2790 0D7E                          u1990 0417                          u2775 07C3  
                        u2871 0DEE                          u2791 0D7D                          u1991 0416  
                        u1895 031D                          u2880 0DF5                          u2881 0DF4  
                        u2865 0DE4                          u2890 0DF9                          u2891 0DF8  
                        _main 0C45                          btemp 007E                          start 0000  
             ___fldiv@new_exp 005A                 ___fltol@sign1 006E               __end_of___fladd 04B2  
                       ?_main 0070               __end_of___fldiv 01E0               __end_of___flmul 07F4  
             __end_of___fltol 0D76               __end_of___lldiv 0CEA                         status 0003  
                       wtemp0 007E               __initialization 07F4                  __end_of_main 0C5F  
                      ??_main 007E                        _CCPR1L 0015                        _TMR2ON 0092  
                      _TRISC2 043A              __end_of___xxtofl 0E2C  PWM_SetDutyCycles@duty_period 00B4  
                   ??___fladd 00A0                     ??___fldiv 0050                     ??___flmul 0036  
                   ??___fltol 00AC                     ??___lldiv 0078                  ___xxtofl@arg 002A  
                ___xxtofl@exp 0029                  ___xxtofl@val 0020       __end_of__initialization 07FC  
                  ___fltol@f1 00A8                __pcstackCOMMON 0070                  __pidataBANK1 0015  
                ?_PWM_SetFreq 00B0             __end_of__Umul8_16 0C86                    __pmaintext 0C45  
                   ?___xxtofl 0020                       ___fladd 01E0                       ___fldiv 0016  
                     ___flmul 04B2                       ___fltol 0CEA                       ___lldiv 0C86  
                     __ptext1 0E2C                       __ptext2 0C86                       __ptext3 01E0  
                     __ptext4 0EF3                       __ptext5 0D76                       __ptext6 0CEA  
                     __ptext7 04B2                       __ptext8 0C5F                       __ptext9 0016  
                   _T2CONbits 0012                    ??___xxtofl 0024          end_of_initialization 07FC  
             ___lldiv@divisor 0070               ___lldiv@counter 007D                   ___fladd@grs 006D  
               ___xxtofl@sign 0028                   ___fldiv@grs 005C                   ___fldiv@rem 0055  
                 ___flmul@grs 003C                   _CCP1CONbits 0017      PWM_SetDutyCycles@tempreg 00B9  
         start_initialization 07F4                     __Umul8_16 0C5F                   __pdataBANK1 00C3  
                   ___fladd@a 0066                     ___fladd@b 0062                     ___fldiv@a 0048  
                   ___fldiv@b 004C                     ___flmul@a 0032                     ___flmul@b 002E  
                   ___latbits 0002                 __pcstackBANK0 0020                 __pcstackBANK1 00A0  
                   __pnvBANK1 00BB                      ?___fladd 0062                      ?___fldiv 0048  
                    ?___flmul 002E                      ?___fltol 00A8                      ?___lldiv 0070  
                  ?__Umul8_16 0070                      _PWM_FREQ 00BF                  _PRESCALE_VAL 00C3  
                 ??__Umul8_16 0072         PWM_SetDutyCycles@duty 00B8                 ??_PWM_SetFreq 007E  
                    ___xxtofl 0D76             _PWM_SetDutyCycles 0EF3            ?_PWM_SetDutyCycles 0070  
         __end_of_PWM_SetFreq 0EF3              ___lldiv@dividend 0074           ??_PWM_SetDutyCycles 00B0  
      __Umul8_16@multiplicand 0070     __end_of_PWM_SetDutyCycles 1000              ___lldiv@quotient 0079  
               ___fladd@signs 006A                  ___fladd@aexp 006B                  ___fladd@bexp 006C  
        __Umul8_16@multiplier 0078                    _PWM_PERIOD 00BB             __Umul8_16@product 0074  
