

Microchip MPLAB XC8 Assembler V2.50 build 20240725155939 
                                                                                               Thu Nov 14 11:27:09 2024

Microchip MPLAB XC8 C Compiler v2.50 (Free license) build 20240725155939 Og1 
     1                           	processor	16F877A
     2                           	pagewidth 120
     3                           	opt	flic
     4                           	psect	nvBANK1,global,class=BANK1,space=1,delta=1,noexec
     5                           	psect	cinit,global,class=CODE,space=0,merge=1,delta=2
     6                           	psect	cstackBANK1,global,class=BANK1,space=1,delta=1,noexec
     7                           	psect	cstackCOMMON,global,class=COMMON,space=1,delta=1,noexec
     8                           	psect	cstackBANK0,global,class=BANK0,space=1,delta=1,noexec
     9                           	psect	maintext,global,class=CODE,space=0,split=1,delta=2
    10                           	psect	text1,local,class=CODE,space=0,merge=1,delta=2
    11                           	psect	text2,local,class=CODE,space=0,merge=1,delta=2
    12                           	psect	text3,local,class=CODE,space=0,merge=1,delta=2,group=1
    13                           	psect	text4,local,class=CODE,space=0,merge=1,delta=2,group=1
    14                           	psect	text5,local,class=CODE,space=0,merge=1,delta=2,group=1
    15                           	psect	text6,local,class=CODE,space=0,merge=1,delta=2,group=1
    16                           	psect	text7,local,class=CODE,space=0,merge=1,delta=2,group=1
    17                           	psect	text8,local,class=CODE,space=0,merge=1,delta=2,group=1
    18                           	psect	config,global,abs,ovrld,class=CONFIG,space=4,delta=2,noexec
    19                           	dabs	1,0x7E,2
    20     0000                     
    21                           ; Generated 12/10/2023 GMT
    22                           ; 
    23                           ; Copyright © 2023, Microchip Technology Inc. and its subsidiaries ("Microchip")
    24                           ; All rights reserved.
    25                           ; 
    26                           ; This software is developed by Microchip Technology Inc. and its subsidiaries ("Microch
      +                          ip").
    27                           ; 
    28                           ; Redistribution and use in source and binary forms, with or without modification, are
    29                           ; permitted provided that the following conditions are met:
    30                           ; 
    31                           ;     1. Redistributions of source code must retain the above copyright notice, this lis
      +                          t of
    32                           ;        conditions and the following disclaimer.
    33                           ; 
    34                           ;     2. Redistributions in binary form must reproduce the above copyright notice, this 
      +                          list
    35                           ;        of conditions and the following disclaimer in the documentation and/or other
    36                           ;        materials provided with the distribution. Publication is not required when
    37                           ;        this file is used in an embedded application.
    38                           ; 
    39                           ;     3. Microchip's name may not be used to endorse or promote products derived from th
      +                          is
    40                           ;        software without specific prior written permission.
    41                           ; 
    42                           ; THIS SOFTWARE IS PROVIDED BY MICROCHIP "AS IS" AND ANY EXPRESS OR IMPLIED WARRANTIES,
    43                           ; INCLUDING, BUT NOT LIMITED TO, THE IMPLIED WARRANTIES OF MERCHANTABILITY AND FITNESS F
      +                          OR
    44                           ; PURPOSE ARE DISCLAIMED.  IN NO EVENT SHALL MICROCHIP BE LIABLE FOR ANY DIRECT, INDIREC
      +                          T,
    45                           ; INCIDENTAL, SPECIAL, EXEMPLARY, OR CONSEQUENTIAL DAMAGES (INCLUDING BUT NOT LIMITED TO
    46                           ; PROCUREMENT OF SUBSTITUTE GOODS OR SERVICES; LOSS OF USE, DATA OR PROFITS; OR BUSINESS
    47                           ; INTERRUPTION) HOWSOEVER CAUSED AND ON ANY THEORY OF LIABILITY, WHETHER IN CONTRACT, ST
      +                          RICT
    48                           ; LIABILITY, OR TORT (INCLUDING NEGLIGENCE OR OTHERWISE) ARISING IN ANY WAY OUT OF THE U
      +                          SE OF
    49                           ; THIS SOFTWARE, EVEN IF ADVISED OF THE POSSIBILITY OF SUCH DAMAGE.
    50                           ; 
    51                           ; 
    52                           ; Code-generator required, PIC16F877A Definitions
    53                           ; 
    54                           ; SFR Addresses
    55     0004                     fsr             equ	4
    56     0004                     fsr0            equ	4
    57     0000                     indf            equ	0
    58     0000                     indf0           equ	0
    59     0002                     pc              equ	2
    60     0002                     pcl             equ	2
    61     000A                     pclath          equ	10
    62     0003                     status          equ	3
    63     0000                     INDF            equ	0	;# 
    64     0001                     TMR0            equ	1	;# 
    65     0002                     PCL             equ	2	;# 
    66     0003                     STATUS          equ	3	;# 
    67     0004                     FSR             equ	4	;# 
    68     0005                     PORTA           equ	5	;# 
    69     0006                     PORTB           equ	6	;# 
    70     0007                     PORTC           equ	7	;# 
    71     0008                     PORTD           equ	8	;# 
    72     0009                     PORTE           equ	9	;# 
    73     000A                     PCLATH          equ	10	;# 
    74     000B                     INTCON          equ	11	;# 
    75     000C                     PIR1            equ	12	;# 
    76     000D                     PIR2            equ	13	;# 
    77     000E                     TMR1            equ	14	;# 
    78     000E                     TMR1L           equ	14	;# 
    79     000F                     TMR1H           equ	15	;# 
    80     0010                     T1CON           equ	16	;# 
    81     0011                     TMR2            equ	17	;# 
    82     0012                     T2CON           equ	18	;# 
    83     0013                     SSPBUF          equ	19	;# 
    84     0014                     SSPCON          equ	20	;# 
    85     0015                     CCPR1           equ	21	;# 
    86     0015                     CCPR1L          equ	21	;# 
    87     0016                     CCPR1H          equ	22	;# 
    88     0017                     CCP1CON         equ	23	;# 
    89     0018                     RCSTA           equ	24	;# 
    90     0019                     TXREG           equ	25	;# 
    91     001A                     RCREG           equ	26	;# 
    92     001B                     CCPR2           equ	27	;# 
    93     001B                     CCPR2L          equ	27	;# 
    94     001C                     CCPR2H          equ	28	;# 
    95     001D                     CCP2CON         equ	29	;# 
    96     001E                     ADRESH          equ	30	;# 
    97     001F                     ADCON0          equ	31	;# 
    98     0081                     OPTION_REG      equ	129	;# 
    99     0085                     TRISA           equ	133	;# 
   100     0086                     TRISB           equ	134	;# 
   101     0087                     TRISC           equ	135	;# 
   102     0088                     TRISD           equ	136	;# 
   103     0089                     TRISE           equ	137	;# 
   104     008C                     PIE1            equ	140	;# 
   105     008D                     PIE2            equ	141	;# 
   106     008E                     PCON            equ	142	;# 
   107     0091                     SSPCON2         equ	145	;# 
   108     0092                     PR2             equ	146	;# 
   109     0093                     SSPADD          equ	147	;# 
   110     0094                     SSPSTAT         equ	148	;# 
   111     0098                     TXSTA           equ	152	;# 
   112     0099                     SPBRG           equ	153	;# 
   113     009C                     CMCON           equ	156	;# 
   114     009D                     CVRCON          equ	157	;# 
   115     009E                     ADRESL          equ	158	;# 
   116     009F                     ADCON1          equ	159	;# 
   117     010C                     EEDATA          equ	268	;# 
   118     010D                     EEADR           equ	269	;# 
   119     010E                     EEDATH          equ	270	;# 
   120     010F                     EEADRH          equ	271	;# 
   121     018C                     EECON1          equ	396	;# 
   122     018D                     EECON2          equ	397	;# 
   123     0000                     INDF            equ	0	;# 
   124     0001                     TMR0            equ	1	;# 
   125     0002                     PCL             equ	2	;# 
   126     0003                     STATUS          equ	3	;# 
   127     0004                     FSR             equ	4	;# 
   128     0005                     PORTA           equ	5	;# 
   129     0006                     PORTB           equ	6	;# 
   130     0007                     PORTC           equ	7	;# 
   131     0008                     PORTD           equ	8	;# 
   132     0009                     PORTE           equ	9	;# 
   133     000A                     PCLATH          equ	10	;# 
   134     000B                     INTCON          equ	11	;# 
   135     000C                     PIR1            equ	12	;# 
   136     000D                     PIR2            equ	13	;# 
   137     000E                     TMR1            equ	14	;# 
   138     000E                     TMR1L           equ	14	;# 
   139     000F                     TMR1H           equ	15	;# 
   140     0010                     T1CON           equ	16	;# 
   141     0011                     TMR2            equ	17	;# 
   142     0012                     T2CON           equ	18	;# 
   143     0013                     SSPBUF          equ	19	;# 
   144     0014                     SSPCON          equ	20	;# 
   145     0015                     CCPR1           equ	21	;# 
   146     0015                     CCPR1L          equ	21	;# 
   147     0016                     CCPR1H          equ	22	;# 
   148     0017                     CCP1CON         equ	23	;# 
   149     0018                     RCSTA           equ	24	;# 
   150     0019                     TXREG           equ	25	;# 
   151     001A                     RCREG           equ	26	;# 
   152     001B                     CCPR2           equ	27	;# 
   153     001B                     CCPR2L          equ	27	;# 
   154     001C                     CCPR2H          equ	28	;# 
   155     001D                     CCP2CON         equ	29	;# 
   156     001E                     ADRESH          equ	30	;# 
   157     001F                     ADCON0          equ	31	;# 
   158     0081                     OPTION_REG      equ	129	;# 
   159     0085                     TRISA           equ	133	;# 
   160     0086                     TRISB           equ	134	;# 
   161     0087                     TRISC           equ	135	;# 
   162     0088                     TRISD           equ	136	;# 
   163     0089                     TRISE           equ	137	;# 
   164     008C                     PIE1            equ	140	;# 
   165     008D                     PIE2            equ	141	;# 
   166     008E                     PCON            equ	142	;# 
   167     0091                     SSPCON2         equ	145	;# 
   168     0092                     PR2             equ	146	;# 
   169     0093                     SSPADD          equ	147	;# 
   170     0094                     SSPSTAT         equ	148	;# 
   171     0098                     TXSTA           equ	152	;# 
   172     0099                     SPBRG           equ	153	;# 
   173     009C                     CMCON           equ	156	;# 
   174     009D                     CVRCON          equ	157	;# 
   175     009E                     ADRESL          equ	158	;# 
   176     009F                     ADCON1          equ	159	;# 
   177     010C                     EEDATA          equ	268	;# 
   178     010D                     EEADR           equ	269	;# 
   179     010E                     EEDATH          equ	270	;# 
   180     010F                     EEADRH          equ	271	;# 
   181     018C                     EECON1          equ	396	;# 
   182     018D                     EECON2          equ	397	;# 
   183                           
   184                           	psect	nvBANK1
   185     00AC                     __pnvBANK1:
   186     00AC                     _PWM_PERIOD:
   187     00AC                     	ds	4
   188     00B0                     _PWM_FREQ:
   189     00B0                     	ds	4
   190     0015                     _CCPR1L         set	21
   191     0017                     _CCP1CONbits    set	23
   192     0012                     _T2CONbits      set	18
   193     0092                     _TMR2ON         set	146
   194     0092                     _PR2            set	146
   195     043A                     _TRISC2         set	1082
   196                           
   197                           	psect	cinit
   198     07FC                     start_initialization:	
   199                           ; #config settings
   200                           
   201     07FC                     __initialization:
   202     07FC                     end_of_initialization:	
   203                           ;End of C runtime variable initialization code
   204                           
   205     07FC                     __end_of__initialization:
   206     07FC  0183               	clrf	3
   207     07FD  120A  158A  2D57   	ljmp	_main	;jump to C main() function
   208                           
   209                           	psect	cstackBANK1
   210     00A0                     __pcstackBANK1:
   211     00A0                     init_pwm@PR2_value:
   212     00A0                     ??_set_duty_cycle_percent:	
   213                           ; 2 bytes @ 0x0
   214                           
   215                           
   216                           ; 1 bytes @ 0x0
   217     00A0                     	ds	2
   218     00A2                     set_duty_cycle_percent@dc:
   219                           
   220                           ; 4 bytes @ 0x2
   221     00A2                     	ds	4
   222     00A6                     set_duty_cycle_percent@dc_period:
   223                           
   224                           ; 4 bytes @ 0x6
   225     00A6                     	ds	4
   226     00AA                     set_duty_cycle_percent@reg_value:
   227                           
   228                           ; 2 bytes @ 0xA
   229     00AA                     	ds	2
   230                           
   231                           	psect	cstackCOMMON
   232     0070                     __pcstackCOMMON:
   233     0070                     ?_main:
   234     0070                     ?__Umul8_16:	
   235                           ; 1 bytes @ 0x0
   236                           
   237     0070                     ?___xxtofl:	
   238                           ; 2 bytes @ 0x0
   239                           
   240     0070                     __Umul8_16@multiplicand:	
   241                           ; 4 bytes @ 0x0
   242                           
   243     0070                     ___xxtofl@val:	
   244                           ; 1 bytes @ 0x0
   245                           
   246                           
   247                           ; 4 bytes @ 0x0
   248     0070                     	ds	2
   249     0072                     ??__Umul8_16:
   250                           
   251                           ; 1 bytes @ 0x2
   252     0072                     	ds	2
   253     0074                     __Umul8_16@product:
   254     0074                     ??___xxtofl:	
   255                           ; 2 bytes @ 0x4
   256                           
   257                           
   258                           ; 1 bytes @ 0x4
   259     0074                     	ds	2
   260     0076                     __Umul8_16@word_mpld:
   261                           
   262                           ; 2 bytes @ 0x6
   263     0076                     	ds	2
   264     0078                     __Umul8_16@multiplier:
   265     0078                     ___xxtofl@sign:	
   266                           ; 1 bytes @ 0x8
   267                           
   268                           
   269                           ; 1 bytes @ 0x8
   270     0078                     	ds	1
   271     0079                     ___xxtofl@exp:
   272     0079                     ??___flmul:	
   273                           ; 1 bytes @ 0x9
   274                           
   275                           
   276                           ; 1 bytes @ 0x9
   277     0079                     	ds	1
   278     007A                     ___xxtofl@arg:
   279                           
   280                           ; 4 bytes @ 0xA
   281     007A                     	ds	4
   282     007E                     ??_init_pwm:
   283     007E                     ??_main:	
   284                           ; 1 bytes @ 0xE
   285                           
   286                           
   287                           	psect	cstackBANK0
   288     0020                     __pcstackBANK0:	
   289                           ; 1 bytes @ 0xE
   290                           
   291     0020                     ?___flmul:
   292     0020                     ___flmul@b:	
   293                           ; 4 bytes @ 0x0
   294                           
   295                           
   296                           ; 4 bytes @ 0x0
   297     0020                     	ds	4
   298     0024                     ___flmul@a:
   299                           
   300                           ; 4 bytes @ 0x4
   301     0024                     	ds	4
   302     0028                     ___flmul@sign:
   303                           
   304                           ; 1 bytes @ 0x8
   305     0028                     	ds	1
   306     0029                     ___flmul@grs:
   307                           
   308                           ; 4 bytes @ 0x9
   309     0029                     	ds	4
   310     002D                     ___flmul@aexp:
   311                           
   312                           ; 1 bytes @ 0xD
   313     002D                     	ds	1
   314     002E                     ___flmul@bexp:
   315                           
   316                           ; 1 bytes @ 0xE
   317     002E                     	ds	1
   318     002F                     ___flmul@prod:
   319                           
   320                           ; 4 bytes @ 0xF
   321     002F                     	ds	4
   322     0033                     ___flmul@temp:
   323                           
   324                           ; 2 bytes @ 0x13
   325     0033                     	ds	2
   326     0035                     ?___fldiv:
   327     0035                     ___fldiv@a:	
   328                           ; 4 bytes @ 0x15
   329                           
   330                           
   331                           ; 4 bytes @ 0x15
   332     0035                     	ds	4
   333     0039                     ___fldiv@b:
   334                           
   335                           ; 4 bytes @ 0x19
   336     0039                     	ds	4
   337     003D                     ??___fldiv:
   338                           
   339                           ; 1 bytes @ 0x1D
   340     003D                     	ds	5
   341     0042                     ___fldiv@rem:
   342                           
   343                           ; 4 bytes @ 0x22
   344     0042                     	ds	4
   345     0046                     ___fldiv@sign:
   346                           
   347                           ; 1 bytes @ 0x26
   348     0046                     	ds	1
   349     0047                     ___fldiv@new_exp:
   350                           
   351                           ; 2 bytes @ 0x27
   352     0047                     	ds	2
   353     0049                     ___fldiv@grs:
   354                           
   355                           ; 4 bytes @ 0x29
   356     0049                     	ds	4
   357     004D                     ___fldiv@bexp:
   358                           
   359                           ; 1 bytes @ 0x2D
   360     004D                     	ds	1
   361     004E                     ___fldiv@aexp:
   362                           
   363                           ; 1 bytes @ 0x2E
   364     004E                     	ds	1
   365     004F                     ?___fladd:
   366     004F                     ___fladd@b:	
   367                           ; 4 bytes @ 0x2F
   368                           
   369                           
   370                           ; 4 bytes @ 0x2F
   371     004F                     	ds	4
   372     0053                     ___fladd@a:
   373                           
   374                           ; 4 bytes @ 0x33
   375     0053                     	ds	4
   376     0057                     ??___fladd:
   377                           
   378                           ; 1 bytes @ 0x37
   379     0057                     	ds	8
   380     005F                     ___fladd@signs:
   381                           
   382                           ; 1 bytes @ 0x3F
   383     005F                     	ds	1
   384     0060                     ___fladd@aexp:
   385                           
   386                           ; 1 bytes @ 0x40
   387     0060                     	ds	1
   388     0061                     ___fladd@bexp:
   389                           
   390                           ; 1 bytes @ 0x41
   391     0061                     	ds	1
   392     0062                     ___fladd@grs:
   393                           
   394                           ; 1 bytes @ 0x42
   395     0062                     	ds	1
   396     0063                     ?___fltol:
   397     0063                     ___fltol@f1:	
   398                           ; 4 bytes @ 0x43
   399                           
   400                           
   401                           ; 4 bytes @ 0x43
   402     0063                     	ds	4
   403     0067                     ??___fltol:
   404                           
   405                           ; 1 bytes @ 0x47
   406     0067                     	ds	4
   407     006B                     ___fltol@sign1:
   408                           
   409                           ; 1 bytes @ 0x4B
   410     006B                     	ds	1
   411     006C                     ___fltol@exp1:
   412                           
   413                           ; 1 bytes @ 0x4C
   414     006C                     	ds	1
   415     006D                     ?_init_pwm:
   416     006D                     ?_set_duty_cycle_percent:	
   417                           ; 1 bytes @ 0x4D
   418                           
   419     006D                     init_pwm@f:	
   420                           ; 1 bytes @ 0x4D
   421                           
   422     006D                     set_duty_cycle_percent@duty_cycle:	
   423                           ; 2 bytes @ 0x4D
   424                           
   425                           
   426                           ; 2 bytes @ 0x4D
   427     006D                     	ds	2
   428                           
   429                           	psect	maintext
   430     0D57                     __pmaintext:	
   431 ;;
   432 ;;Main: autosize = 0, tempsize = 0, incstack = 0, save=0
   433 ;;
   434 ;; *************** function _main *****************
   435 ;; Defined at:
   436 ;;		line 46 in file "main.c"
   437 ;; Parameters:    Size  Location     Type
   438 ;;		None
   439 ;; Auto vars:     Size  Location     Type
   440 ;;		None
   441 ;; Return value:  Size  Location     Type
   442 ;;                  1    wreg      void 
   443 ;; Registers used:
   444 ;;		wreg, status,2, status,0, btemp+1, pclath, cstack
   445 ;; Tracked objects:
   446 ;;		On entry : B00/0
   447 ;;		On exit  : 0/0
   448 ;;		Unchanged: 0/0
   449 ;; Data sizes:     COMMON   BANK0   BANK1   BANK3   BANK2
   450 ;;      Params:         0       0       0       0       0
   451 ;;      Locals:         0       0       0       0       0
   452 ;;      Temps:          0       0       0       0       0
   453 ;;      Totals:         0       0       0       0       0
   454 ;;Total ram usage:        0 bytes
   455 ;; Hardware stack levels required when called: 3
   456 ;; This function calls:
   457 ;;		_init_pwm
   458 ;;		_set_duty_cycle_percent
   459 ;; This function is called by:
   460 ;;		Startup code after reset
   461 ;; This function uses a non-reentrant model
   462 ;;
   463                           
   464     0D57                     _main:	
   465                           ;psect for function _main
   466                           
   467     0D57                     l1770:	
   468                           ;incstack = 0
   469                           ; Regs used in _main: [wreg+status,2+status,0+btemp+1+pclath+cstack]
   470                           
   471     0D57  1683               	bsf	3,5	;RP0=1, select bank1
   472     0D58  1303               	bcf	3,6	;RP1=0, select bank1
   473     0D59  1107               	bcf	7,2	;volatile
   474     0D5A                     l1772:
   475     0D5A  30E8               	movlw	232
   476     0D5B  1283               	bcf	3,5	;RP0=0, select bank0
   477     0D5C  1303               	bcf	3,6	;RP1=0, select bank0
   478     0D5D  00ED               	movwf	init_pwm@f
   479     0D5E  3003               	movlw	3
   480     0D5F  00EE               	movwf	init_pwm@f+1
   481     0D60  120A  158A  2628  120A  158A  	fcall	_init_pwm
   482     0D65  3055               	movlw	85
   483     0D66  1283               	bcf	3,5	;RP0=0, select bank0
   484     0D67  1303               	bcf	3,6	;RP1=0, select bank0
   485     0D68  00ED               	movwf	set_duty_cycle_percent@duty_cycle
   486     0D69  3000               	movlw	0
   487     0D6A  00EE               	movwf	set_duty_cycle_percent@duty_cycle+1
   488     0D6B  120A  158A  26F1  120A  158A  	fcall	_set_duty_cycle_percent
   489     0D70                     l27:
   490     0D70                     l28:
   491     0D70  2D70               	goto	l27
   492     0D71  120A  118A  2800   	ljmp	start
   493     0D74                     __end_of_main:
   494                           
   495                           	psect	text1
   496     0EF1                     __ptext1:	
   497 ;; *************** function _set_duty_cycle_percent *****************
   498 ;; Defined at:
   499 ;;		line 33 in file "main.c"
   500 ;; Parameters:    Size  Location     Type
   501 ;;  duty_cycle      2   77[BANK0 ] unsigned int 
   502 ;; Auto vars:     Size  Location     Type
   503 ;;  dc_period       4    6[BANK1 ] float 
   504 ;;  dc              4    2[BANK1 ] float 
   505 ;;  reg_value       2   10[BANK1 ] int 
   506 ;; Return value:  Size  Location     Type
   507 ;;                  1    wreg      void 
   508 ;; Registers used:
   509 ;;		wreg, status,2, status,0, btemp+1, pclath, cstack
   510 ;; Tracked objects:
   511 ;;		On entry : 0/0
   512 ;;		On exit  : 0/0
   513 ;;		Unchanged: 0/0
   514 ;; Data sizes:     COMMON   BANK0   BANK1   BANK3   BANK2
   515 ;;      Params:         0       2       0       0       0
   516 ;;      Locals:         0       0      10       0       0
   517 ;;      Temps:          0       0       2       0       0
   518 ;;      Totals:         0       2      12       0       0
   519 ;;Total ram usage:       14 bytes
   520 ;; Hardware stack levels used: 1
   521 ;; Hardware stack levels required when called: 2
   522 ;; This function calls:
   523 ;;		___fldiv
   524 ;;		___flmul
   525 ;;		___fltol
   526 ;;		___xxtofl
   527 ;; This function is called by:
   528 ;;		_main
   529 ;; This function uses a non-reentrant model
   530 ;;
   531                           
   532     0EF1                     _set_duty_cycle_percent:	
   533                           ;psect for function _set_duty_cycle_percent
   534                           
   535     0EF1                     l1762:	
   536                           ;incstack = 0
   537                           ; Regs used in _set_duty_cycle_percent: [wreg+status,2+status,0+btemp+1+pclath+cstack]
   538                           
   539                           
   540                           ;main.c: 34: 
   541     0EF1  3042               	movlw	66
   542     0EF2  1283               	bcf	3,5	;RP0=0, select bank0
   543     0EF3  1303               	bcf	3,6	;RP1=0, select bank0
   544     0EF4  00B8               	movwf	___fldiv@a+3
   545     0EF5  30C8               	movlw	200
   546     0EF6  00B7               	movwf	___fldiv@a+2
   547     0EF7  3000               	movlw	0
   548     0EF8  00B6               	movwf	___fldiv@a+1
   549     0EF9  3000               	movlw	0
   550     0EFA  00B5               	movwf	___fldiv@a
   551     0EFB  086D               	movf	set_duty_cycle_percent@duty_cycle,w
   552     0EFC  00F0               	movwf	___xxtofl@val
   553     0EFD  086E               	movf	set_duty_cycle_percent@duty_cycle+1,w
   554     0EFE  00F1               	movwf	___xxtofl@val+1
   555     0EFF  01F2               	clrf	___xxtofl@val+2
   556     0F00  01F3               	clrf	___xxtofl@val+3
   557     0F01  3000               	movlw	0
   558     0F02  120A  158A  2574  120A  158A  	fcall	___xxtofl
   559     0F07  0873               	movf	?___xxtofl+3,w
   560     0F08  1283               	bcf	3,5	;RP0=0, select bank0
   561     0F09  1303               	bcf	3,6	;RP1=0, select bank0
   562     0F0A  00BC               	movwf	___fldiv@b+3
   563     0F0B  0872               	movf	?___xxtofl+2,w
   564     0F0C  00BB               	movwf	___fldiv@b+2
   565     0F0D  0871               	movf	?___xxtofl+1,w
   566     0F0E  00BA               	movwf	___fldiv@b+1
   567     0F0F  0870               	movf	?___xxtofl,w
   568     0F10  00B9               	movwf	___fldiv@b
   569     0F11  120A  118A  20A0  120A  158A  	fcall	___fldiv
   570     0F16  1283               	bcf	3,5	;RP0=0, select bank0
   571     0F17  1303               	bcf	3,6	;RP1=0, select bank0
   572     0F18  0838               	movf	?___fldiv+3,w
   573     0F19  1683               	bsf	3,5	;RP0=1, select bank1
   574     0F1A  1303               	bcf	3,6	;RP1=0, select bank1
   575     0F1B  00A5               	movwf	(set_duty_cycle_percent@dc+3)^(0+128)
   576     0F1C  1283               	bcf	3,5	;RP0=0, select bank0
   577     0F1D  1303               	bcf	3,6	;RP1=0, select bank0
   578     0F1E  0837               	movf	?___fldiv+2,w
   579     0F1F  1683               	bsf	3,5	;RP0=1, select bank1
   580     0F20  1303               	bcf	3,6	;RP1=0, select bank1
   581     0F21  00A4               	movwf	(set_duty_cycle_percent@dc+2)^(0+128)
   582     0F22  1283               	bcf	3,5	;RP0=0, select bank0
   583     0F23  1303               	bcf	3,6	;RP1=0, select bank0
   584     0F24  0836               	movf	?___fldiv+1,w
   585     0F25  1683               	bsf	3,5	;RP0=1, select bank1
   586     0F26  1303               	bcf	3,6	;RP1=0, select bank1
   587     0F27  00A3               	movwf	(set_duty_cycle_percent@dc+1)^(0+128)
   588     0F28  1283               	bcf	3,5	;RP0=0, select bank0
   589     0F29  1303               	bcf	3,6	;RP1=0, select bank0
   590     0F2A  0835               	movf	?___fldiv,w
   591     0F2B  1683               	bsf	3,5	;RP0=1, select bank1
   592     0F2C  1303               	bcf	3,6	;RP1=0, select bank1
   593     0F2D  00A2               	movwf	set_duty_cycle_percent@dc^(0+128)
   594                           
   595                           ;main.c: 35:     set_duty_cycle_percent(85);
   596     0F2E  082F               	movf	(_PWM_PERIOD+3)^(0+128),w
   597     0F2F  1283               	bcf	3,5	;RP0=0, select bank0
   598     0F30  1303               	bcf	3,6	;RP1=0, select bank0
   599     0F31  00A3               	movwf	___flmul@b+3
   600     0F32  1683               	bsf	3,5	;RP0=1, select bank1
   601     0F33  1303               	bcf	3,6	;RP1=0, select bank1
   602     0F34  082E               	movf	(_PWM_PERIOD+2)^(0+128),w
   603     0F35  1283               	bcf	3,5	;RP0=0, select bank0
   604     0F36  1303               	bcf	3,6	;RP1=0, select bank0
   605     0F37  00A2               	movwf	___flmul@b+2
   606     0F38  1683               	bsf	3,5	;RP0=1, select bank1
   607     0F39  1303               	bcf	3,6	;RP1=0, select bank1
   608     0F3A  082D               	movf	(_PWM_PERIOD+1)^(0+128),w
   609     0F3B  1283               	bcf	3,5	;RP0=0, select bank0
   610     0F3C  1303               	bcf	3,6	;RP1=0, select bank0
   611     0F3D  00A1               	movwf	___flmul@b+1
   612     0F3E  1683               	bsf	3,5	;RP0=1, select bank1
   613     0F3F  1303               	bcf	3,6	;RP1=0, select bank1
   614     0F40  082C               	movf	_PWM_PERIOD^(0+128),w
   615     0F41  1283               	bcf	3,5	;RP0=0, select bank0
   616     0F42  1303               	bcf	3,6	;RP1=0, select bank0
   617     0F43  00A0               	movwf	___flmul@b
   618     0F44  1683               	bsf	3,5	;RP0=1, select bank1
   619     0F45  1303               	bcf	3,6	;RP1=0, select bank1
   620     0F46  0825               	movf	(set_duty_cycle_percent@dc+3)^(0+128),w
   621     0F47  1283               	bcf	3,5	;RP0=0, select bank0
   622     0F48  1303               	bcf	3,6	;RP1=0, select bank0
   623     0F49  00A7               	movwf	___flmul@a+3
   624     0F4A  1683               	bsf	3,5	;RP0=1, select bank1
   625     0F4B  1303               	bcf	3,6	;RP1=0, select bank1
   626     0F4C  0824               	movf	(set_duty_cycle_percent@dc+2)^(0+128),w
   627     0F4D  1283               	bcf	3,5	;RP0=0, select bank0
   628     0F4E  1303               	bcf	3,6	;RP1=0, select bank0
   629     0F4F  00A6               	movwf	___flmul@a+2
   630     0F50  1683               	bsf	3,5	;RP0=1, select bank1
   631     0F51  1303               	bcf	3,6	;RP1=0, select bank1
   632     0F52  0823               	movf	(set_duty_cycle_percent@dc+1)^(0+128),w
   633     0F53  1283               	bcf	3,5	;RP0=0, select bank0
   634     0F54  1303               	bcf	3,6	;RP1=0, select bank0
   635     0F55  00A5               	movwf	___flmul@a+1
   636     0F56  1683               	bsf	3,5	;RP0=1, select bank1
   637     0F57  1303               	bcf	3,6	;RP1=0, select bank1
   638     0F58  0822               	movf	set_duty_cycle_percent@dc^(0+128),w
   639     0F59  1283               	bcf	3,5	;RP0=0, select bank0
   640     0F5A  1303               	bcf	3,6	;RP1=0, select bank0
   641     0F5B  00A4               	movwf	___flmul@a
   642     0F5C  120A  118A  24BA  120A  158A  	fcall	___flmul
   643     0F61  1283               	bcf	3,5	;RP0=0, select bank0
   644     0F62  1303               	bcf	3,6	;RP1=0, select bank0
   645     0F63  0823               	movf	?___flmul+3,w
   646     0F64  1683               	bsf	3,5	;RP0=1, select bank1
   647     0F65  1303               	bcf	3,6	;RP1=0, select bank1
   648     0F66  00A9               	movwf	(set_duty_cycle_percent@dc_period+3)^(0+128)
   649     0F67  1283               	bcf	3,5	;RP0=0, select bank0
   650     0F68  1303               	bcf	3,6	;RP1=0, select bank0
   651     0F69  0822               	movf	?___flmul+2,w
   652     0F6A  1683               	bsf	3,5	;RP0=1, select bank1
   653     0F6B  1303               	bcf	3,6	;RP1=0, select bank1
   654     0F6C  00A8               	movwf	(set_duty_cycle_percent@dc_period+2)^(0+128)
   655     0F6D  1283               	bcf	3,5	;RP0=0, select bank0
   656     0F6E  1303               	bcf	3,6	;RP1=0, select bank0
   657     0F6F  0821               	movf	?___flmul+1,w
   658     0F70  1683               	bsf	3,5	;RP0=1, select bank1
   659     0F71  1303               	bcf	3,6	;RP1=0, select bank1
   660     0F72  00A7               	movwf	(set_duty_cycle_percent@dc_period+1)^(0+128)
   661     0F73  1283               	bcf	3,5	;RP0=0, select bank0
   662     0F74  1303               	bcf	3,6	;RP1=0, select bank0
   663     0F75  0820               	movf	?___flmul,w
   664     0F76  1683               	bsf	3,5	;RP0=1, select bank1
   665     0F77  1303               	bcf	3,6	;RP1=0, select bank1
   666     0F78  00A6               	movwf	set_duty_cycle_percent@dc_period^(0+128)
   667                           
   668                           ;main.c: 36:     while (1)
   669     0F79  0829               	movf	(set_duty_cycle_percent@dc_period+3)^(0+128),w
   670     0F7A  1283               	bcf	3,5	;RP0=0, select bank0
   671     0F7B  1303               	bcf	3,6	;RP1=0, select bank0
   672     0F7C  00A7               	movwf	___flmul@a+3
   673     0F7D  1683               	bsf	3,5	;RP0=1, select bank1
   674     0F7E  1303               	bcf	3,6	;RP1=0, select bank1
   675     0F7F  0828               	movf	(set_duty_cycle_percent@dc_period+2)^(0+128),w
   676     0F80  1283               	bcf	3,5	;RP0=0, select bank0
   677     0F81  1303               	bcf	3,6	;RP1=0, select bank0
   678     0F82  00A6               	movwf	___flmul@a+2
   679     0F83  1683               	bsf	3,5	;RP0=1, select bank1
   680     0F84  1303               	bcf	3,6	;RP1=0, select bank1
   681     0F85  0827               	movf	(set_duty_cycle_percent@dc_period+1)^(0+128),w
   682     0F86  1283               	bcf	3,5	;RP0=0, select bank0
   683     0F87  1303               	bcf	3,6	;RP1=0, select bank0
   684     0F88  00A5               	movwf	___flmul@a+1
   685     0F89  1683               	bsf	3,5	;RP0=1, select bank1
   686     0F8A  1303               	bcf	3,6	;RP1=0, select bank1
   687     0F8B  0826               	movf	set_duty_cycle_percent@dc_period^(0+128),w
   688     0F8C  1283               	bcf	3,5	;RP0=0, select bank0
   689     0F8D  1303               	bcf	3,6	;RP1=0, select bank0
   690     0F8E  00A4               	movwf	___flmul@a
   691     0F8F  304A               	movlw	74
   692     0F90  00A3               	movwf	___flmul@b+3
   693     0F91  3074               	movlw	116
   694     0F92  00A2               	movwf	___flmul@b+2
   695     0F93  3024               	movlw	36
   696     0F94  00A1               	movwf	___flmul@b+1
   697     0F95  3000               	movlw	0
   698     0F96  00A0               	movwf	___flmul@b
   699     0F97  120A  118A  24BA  120A  158A  	fcall	___flmul
   700     0F9C  1283               	bcf	3,5	;RP0=0, select bank0
   701     0F9D  1303               	bcf	3,6	;RP1=0, select bank0
   702     0F9E  0823               	movf	?___flmul+3,w
   703     0F9F  00BC               	movwf	___fldiv@b+3
   704     0FA0  0822               	movf	?___flmul+2,w
   705     0FA1  00BB               	movwf	___fldiv@b+2
   706     0FA2  0821               	movf	?___flmul+1,w
   707     0FA3  00BA               	movwf	___fldiv@b+1
   708     0FA4  0820               	movf	?___flmul,w
   709     0FA5  00B9               	movwf	___fldiv@b
   710     0FA6  3041               	movlw	65
   711     0FA7  00B8               	movwf	___fldiv@a+3
   712     0FA8  3080               	movlw	128
   713     0FA9  00B7               	movwf	___fldiv@a+2
   714     0FAA  3000               	movlw	0
   715     0FAB  00B6               	movwf	___fldiv@a+1
   716     0FAC  3000               	movlw	0
   717     0FAD  00B5               	movwf	___fldiv@a
   718     0FAE  120A  118A  20A0  120A  158A  	fcall	___fldiv
   719     0FB3  1283               	bcf	3,5	;RP0=0, select bank0
   720     0FB4  1303               	bcf	3,6	;RP1=0, select bank0
   721     0FB5  0838               	movf	?___fldiv+3,w
   722     0FB6  00E6               	movwf	___fltol@f1+3
   723     0FB7  0837               	movf	?___fldiv+2,w
   724     0FB8  00E5               	movwf	___fltol@f1+2
   725     0FB9  0836               	movf	?___fldiv+1,w
   726     0FBA  00E4               	movwf	___fltol@f1+1
   727     0FBB  0835               	movf	?___fldiv,w
   728     0FBC  00E3               	movwf	___fltol@f1
   729     0FBD  120A  118A  202A  120A  158A  	fcall	___fltol
   730     0FC2  1283               	bcf	3,5	;RP0=0, select bank0
   731     0FC3  1303               	bcf	3,6	;RP1=0, select bank0
   732     0FC4  0864               	movf	?___fltol+1,w
   733     0FC5  1683               	bsf	3,5	;RP0=1, select bank1
   734     0FC6  1303               	bcf	3,6	;RP1=0, select bank1
   735     0FC7  00AB               	movwf	(set_duty_cycle_percent@reg_value+1)^(0+128)
   736     0FC8  1283               	bcf	3,5	;RP0=0, select bank0
   737     0FC9  1303               	bcf	3,6	;RP1=0, select bank0
   738     0FCA  0863               	movf	?___fltol,w
   739     0FCB  1683               	bsf	3,5	;RP0=1, select bank1
   740     0FCC  1303               	bcf	3,6	;RP1=0, select bank1
   741     0FCD  00AA               	movwf	set_duty_cycle_percent@reg_value^(0+128)
   742     0FCE                     l1764:
   743     0FCE  082B               	movf	(set_duty_cycle_percent@reg_value+1)^(0+128),w
   744     0FCF  00A1               	movwf	(??_set_duty_cycle_percent^(0+128)+1)
   745     0FD0  082A               	movf	set_duty_cycle_percent@reg_value^(0+128),w
   746     0FD1  00A0               	movwf	??_set_duty_cycle_percent^(0+128)
   747     0FD2  0D21               	rlf	(??_set_duty_cycle_percent^(0+128)+1),w
   748     0FD3  0CA1               	rrf	(??_set_duty_cycle_percent^(0+128)+1),f
   749     0FD4  0CA0               	rrf	??_set_duty_cycle_percent^(0+128),f
   750     0FD5  0D21               	rlf	(??_set_duty_cycle_percent^(0+128)+1),w
   751     0FD6  0CA1               	rrf	(??_set_duty_cycle_percent^(0+128)+1),f
   752     0FD7  0CA0               	rrf	??_set_duty_cycle_percent^(0+128),f
   753     0FD8  0820               	movf	??_set_duty_cycle_percent^(0+128),w
   754     0FD9  1283               	bcf	3,5	;RP0=0, select bank0
   755     0FDA  1303               	bcf	3,6	;RP1=0, select bank0
   756     0FDB  0095               	movwf	21	;volatile
   757     0FDC                     l1766:
   758     0FDC  1683               	bsf	3,5	;RP0=1, select bank1
   759     0FDD  1303               	bcf	3,6	;RP1=0, select bank1
   760     0FDE  082A               	movf	set_duty_cycle_percent@reg_value^(0+128),w
   761     0FDF  3901               	andlw	1
   762     0FE0  00A0               	movwf	??_set_duty_cycle_percent^(0+128)
   763     0FE1  0EA0               	swapf	??_set_duty_cycle_percent^(0+128),f
   764     0FE2  0DA0               	rlf	??_set_duty_cycle_percent^(0+128),f
   765     0FE3  1283               	bcf	3,5	;RP0=0, select bank0
   766     0FE4  1303               	bcf	3,6	;RP1=0, select bank0
   767     0FE5  0817               	movf	23,w	;volatile
   768     0FE6  1683               	bsf	3,5	;RP0=1, select bank1
   769     0FE7  1303               	bcf	3,6	;RP1=0, select bank1
   770     0FE8  0620               	xorwf	??_set_duty_cycle_percent^(0+128),w
   771     0FE9  39DF               	andlw	-33
   772     0FEA  0620               	xorwf	??_set_duty_cycle_percent^(0+128),w
   773     0FEB  1283               	bcf	3,5	;RP0=0, select bank0
   774     0FEC  1303               	bcf	3,6	;RP1=0, select bank0
   775     0FED  0097               	movwf	23	;volatile
   776     0FEE                     l1768:
   777     0FEE  1683               	bsf	3,5	;RP0=1, select bank1
   778     0FEF  1303               	bcf	3,6	;RP1=0, select bank1
   779     0FF0  082A               	movf	set_duty_cycle_percent@reg_value^(0+128),w
   780     0FF1  3902               	andlw	2
   781     0FF2  00A0               	movwf	??_set_duty_cycle_percent^(0+128)
   782     0FF3  0EA0               	swapf	??_set_duty_cycle_percent^(0+128),f
   783     0FF4  1283               	bcf	3,5	;RP0=0, select bank0
   784     0FF5  1303               	bcf	3,6	;RP1=0, select bank0
   785     0FF6  0817               	movf	23,w	;volatile
   786     0FF7  1683               	bsf	3,5	;RP0=1, select bank1
   787     0FF8  1303               	bcf	3,6	;RP1=0, select bank1
   788     0FF9  0620               	xorwf	??_set_duty_cycle_percent^(0+128),w
   789     0FFA  39EF               	andlw	-17
   790     0FFB  0620               	xorwf	??_set_duty_cycle_percent^(0+128),w
   791     0FFC  1283               	bcf	3,5	;RP0=0, select bank0
   792     0FFD  1303               	bcf	3,6	;RP1=0, select bank0
   793     0FFE  0097               	movwf	23	;volatile
   794     0FFF                     l22:
   795     0FFF  0008               	return
   796     1000                     __end_of_set_duty_cycle_percent:
   797                           
   798                           	psect	text2
   799     0E28                     __ptext2:	
   800 ;; *************** function _init_pwm *****************
   801 ;; Defined at:
   802 ;;		line 18 in file "main.c"
   803 ;; Parameters:    Size  Location     Type
   804 ;;  f               2   77[BANK0 ] unsigned int 
   805 ;; Auto vars:     Size  Location     Type
   806 ;;  PR2_value       2    0[BANK1 ] int 
   807 ;; Return value:  Size  Location     Type
   808 ;;                  1    wreg      void 
   809 ;; Registers used:
   810 ;;		wreg, status,2, status,0, btemp+1, pclath, cstack
   811 ;; Tracked objects:
   812 ;;		On entry : 0/0
   813 ;;		On exit  : 0/0
   814 ;;		Unchanged: 0/0
   815 ;; Data sizes:     COMMON   BANK0   BANK1   BANK3   BANK2
   816 ;;      Params:         0       2       0       0       0
   817 ;;      Locals:         0       0       2       0       0
   818 ;;      Temps:          0       0       0       0       0
   819 ;;      Totals:         0       2       2       0       0
   820 ;;Total ram usage:        4 bytes
   821 ;; Hardware stack levels used: 1
   822 ;; Hardware stack levels required when called: 2
   823 ;; This function calls:
   824 ;;		___fladd
   825 ;;		___fldiv
   826 ;;		___flmul
   827 ;;		___fltol
   828 ;;		___xxtofl
   829 ;; This function is called by:
   830 ;;		_main
   831 ;; This function uses a non-reentrant model
   832 ;;
   833                           
   834     0E28                     _init_pwm:	
   835                           ;psect for function _init_pwm
   836                           
   837     0E28                     l1750:	
   838                           ;incstack = 0
   839                           ; Regs used in _init_pwm: [wreg+status,2+status,0+btemp+1+pclath+cstack]
   840                           
   841                           
   842                           ;main.c: 20: 
   843     0E28  3003               	movlw	3
   844     0E29  1283               	bcf	3,5	;RP0=0, select bank0
   845     0E2A  1303               	bcf	3,6	;RP1=0, select bank0
   846     0E2B  0492               	iorwf	18,f	;volatile
   847     0E2C                     l1752:
   848                           
   849                           ;main.c: 22: 
   850     0E2C  1512               	bsf	18,2	;volatile
   851                           
   852                           ;main.c: 24: 
   853     0E2D  0817               	movf	23,w	;volatile
   854     0E2E  39F0               	andlw	-16
   855     0E2F  380C               	iorlw	12
   856     0E30  0097               	movwf	23	;volatile
   857     0E31                     l1754:
   858                           
   859                           ;main.c: 28: }
   860     0E31  086D               	movf	init_pwm@f,w
   861     0E32  00F0               	movwf	___xxtofl@val
   862     0E33  086E               	movf	init_pwm@f+1,w
   863     0E34  00F1               	movwf	___xxtofl@val+1
   864     0E35  01F2               	clrf	___xxtofl@val+2
   865     0E36  01F3               	clrf	___xxtofl@val+3
   866     0E37  3000               	movlw	0
   867     0E38  120A  158A  2574  120A  158A  	fcall	___xxtofl
   868     0E3D  0873               	movf	?___xxtofl+3,w
   869     0E3E  1683               	bsf	3,5	;RP0=1, select bank1
   870     0E3F  1303               	bcf	3,6	;RP1=0, select bank1
   871     0E40  00B3               	movwf	(_PWM_FREQ+3)^(0+128)
   872     0E41  0872               	movf	?___xxtofl+2,w
   873     0E42  00B2               	movwf	(_PWM_FREQ+2)^(0+128)
   874     0E43  0871               	movf	?___xxtofl+1,w
   875     0E44  00B1               	movwf	(_PWM_FREQ+1)^(0+128)
   876     0E45  0870               	movf	?___xxtofl,w
   877     0E46  00B0               	movwf	_PWM_FREQ^(0+128)
   878     0E47                     l1756:
   879                           
   880                           ;main.c: 29: void main()
   881     0E47  0833               	movf	(_PWM_FREQ+3)^(0+128),w
   882     0E48  1283               	bcf	3,5	;RP0=0, select bank0
   883     0E49  1303               	bcf	3,6	;RP1=0, select bank0
   884     0E4A  00B8               	movwf	___fldiv@a+3
   885     0E4B  1683               	bsf	3,5	;RP0=1, select bank1
   886     0E4C  1303               	bcf	3,6	;RP1=0, select bank1
   887     0E4D  0832               	movf	(_PWM_FREQ+2)^(0+128),w
   888     0E4E  1283               	bcf	3,5	;RP0=0, select bank0
   889     0E4F  1303               	bcf	3,6	;RP1=0, select bank0
   890     0E50  00B7               	movwf	___fldiv@a+2
   891     0E51  1683               	bsf	3,5	;RP0=1, select bank1
   892     0E52  1303               	bcf	3,6	;RP1=0, select bank1
   893     0E53  0831               	movf	(_PWM_FREQ+1)^(0+128),w
   894     0E54  1283               	bcf	3,5	;RP0=0, select bank0
   895     0E55  1303               	bcf	3,6	;RP1=0, select bank0
   896     0E56  00B6               	movwf	___fldiv@a+1
   897     0E57  1683               	bsf	3,5	;RP0=1, select bank1
   898     0E58  1303               	bcf	3,6	;RP1=0, select bank1
   899     0E59  0830               	movf	_PWM_FREQ^(0+128),w
   900     0E5A  1283               	bcf	3,5	;RP0=0, select bank0
   901     0E5B  1303               	bcf	3,6	;RP1=0, select bank0
   902     0E5C  00B5               	movwf	___fldiv@a
   903     0E5D  303F               	movlw	63
   904     0E5E  00BC               	movwf	___fldiv@b+3
   905     0E5F  3080               	movlw	128
   906     0E60  00BB               	movwf	___fldiv@b+2
   907     0E61  3000               	movlw	0
   908     0E62  00BA               	movwf	___fldiv@b+1
   909     0E63  3000               	movlw	0
   910     0E64  00B9               	movwf	___fldiv@b
   911     0E65  120A  118A  20A0  120A  158A  	fcall	___fldiv
   912     0E6A  1283               	bcf	3,5	;RP0=0, select bank0
   913     0E6B  1303               	bcf	3,6	;RP1=0, select bank0
   914     0E6C  0838               	movf	?___fldiv+3,w
   915     0E6D  1683               	bsf	3,5	;RP0=1, select bank1
   916     0E6E  1303               	bcf	3,6	;RP1=0, select bank1
   917     0E6F  00AF               	movwf	(_PWM_PERIOD+3)^(0+128)
   918     0E70  1283               	bcf	3,5	;RP0=0, select bank0
   919     0E71  1303               	bcf	3,6	;RP1=0, select bank0
   920     0E72  0837               	movf	?___fldiv+2,w
   921     0E73  1683               	bsf	3,5	;RP0=1, select bank1
   922     0E74  1303               	bcf	3,6	;RP1=0, select bank1
   923     0E75  00AE               	movwf	(_PWM_PERIOD+2)^(0+128)
   924     0E76  1283               	bcf	3,5	;RP0=0, select bank0
   925     0E77  1303               	bcf	3,6	;RP1=0, select bank0
   926     0E78  0836               	movf	?___fldiv+1,w
   927     0E79  1683               	bsf	3,5	;RP0=1, select bank1
   928     0E7A  1303               	bcf	3,6	;RP1=0, select bank1
   929     0E7B  00AD               	movwf	(_PWM_PERIOD+1)^(0+128)
   930     0E7C  1283               	bcf	3,5	;RP0=0, select bank0
   931     0E7D  1303               	bcf	3,6	;RP1=0, select bank0
   932     0E7E  0835               	movf	?___fldiv,w
   933     0E7F  1683               	bsf	3,5	;RP0=1, select bank1
   934     0E80  1303               	bcf	3,6	;RP1=0, select bank1
   935     0E81  00AC               	movwf	_PWM_PERIOD^(0+128)
   936     0E82                     l1758:
   937                           
   938                           ;main.c: 30: {
   939     0E82  082F               	movf	(_PWM_PERIOD+3)^(0+128),w
   940     0E83  1283               	bcf	3,5	;RP0=0, select bank0
   941     0E84  1303               	bcf	3,6	;RP1=0, select bank0
   942     0E85  00A7               	movwf	___flmul@a+3
   943     0E86  1683               	bsf	3,5	;RP0=1, select bank1
   944     0E87  1303               	bcf	3,6	;RP1=0, select bank1
   945     0E88  082E               	movf	(_PWM_PERIOD+2)^(0+128),w
   946     0E89  1283               	bcf	3,5	;RP0=0, select bank0
   947     0E8A  1303               	bcf	3,6	;RP1=0, select bank0
   948     0E8B  00A6               	movwf	___flmul@a+2
   949     0E8C  1683               	bsf	3,5	;RP0=1, select bank1
   950     0E8D  1303               	bcf	3,6	;RP1=0, select bank1
   951     0E8E  082D               	movf	(_PWM_PERIOD+1)^(0+128),w
   952     0E8F  1283               	bcf	3,5	;RP0=0, select bank0
   953     0E90  1303               	bcf	3,6	;RP1=0, select bank0
   954     0E91  00A5               	movwf	___flmul@a+1
   955     0E92  1683               	bsf	3,5	;RP0=1, select bank1
   956     0E93  1303               	bcf	3,6	;RP1=0, select bank1
   957     0E94  082C               	movf	_PWM_PERIOD^(0+128),w
   958     0E95  1283               	bcf	3,5	;RP0=0, select bank0
   959     0E96  1303               	bcf	3,6	;RP1=0, select bank0
   960     0E97  00A4               	movwf	___flmul@a
   961     0E98  304A               	movlw	74
   962     0E99  00A3               	movwf	___flmul@b+3
   963     0E9A  3074               	movlw	116
   964     0E9B  00A2               	movwf	___flmul@b+2
   965     0E9C  3024               	movlw	36
   966     0E9D  00A1               	movwf	___flmul@b+1
   967     0E9E  3000               	movlw	0
   968     0E9F  00A0               	movwf	___flmul@b
   969     0EA0  120A  118A  24BA  120A  158A  	fcall	___flmul
   970     0EA5  1283               	bcf	3,5	;RP0=0, select bank0
   971     0EA6  1303               	bcf	3,6	;RP1=0, select bank0
   972     0EA7  0823               	movf	?___flmul+3,w
   973     0EA8  00BC               	movwf	___fldiv@b+3
   974     0EA9  0822               	movf	?___flmul+2,w
   975     0EAA  00BB               	movwf	___fldiv@b+2
   976     0EAB  0821               	movf	?___flmul+1,w
   977     0EAC  00BA               	movwf	___fldiv@b+1
   978     0EAD  0820               	movf	?___flmul,w
   979     0EAE  00B9               	movwf	___fldiv@b
   980     0EAF  3042               	movlw	66
   981     0EB0  00B8               	movwf	___fldiv@a+3
   982     0EB1  3080               	movlw	128
   983     0EB2  00B7               	movwf	___fldiv@a+2
   984     0EB3  3000               	movlw	0
   985     0EB4  00B6               	movwf	___fldiv@a+1
   986     0EB5  3000               	movlw	0
   987     0EB6  00B5               	movwf	___fldiv@a
   988     0EB7  120A  118A  20A0  120A  158A  	fcall	___fldiv
   989     0EBC  1283               	bcf	3,5	;RP0=0, select bank0
   990     0EBD  1303               	bcf	3,6	;RP1=0, select bank0
   991     0EBE  0838               	movf	?___fldiv+3,w
   992     0EBF  00D6               	movwf	___fladd@a+3
   993     0EC0  0837               	movf	?___fldiv+2,w
   994     0EC1  00D5               	movwf	___fladd@a+2
   995     0EC2  0836               	movf	?___fldiv+1,w
   996     0EC3  00D4               	movwf	___fladd@a+1
   997     0EC4  0835               	movf	?___fldiv,w
   998     0EC5  00D3               	movwf	___fladd@a
   999     0EC6  30BF               	movlw	191
  1000     0EC7  00D2               	movwf	___fladd@b+3
  1001     0EC8  3080               	movlw	128
  1002     0EC9  00D1               	movwf	___fladd@b+2
  1003     0ECA  3000               	movlw	0
  1004     0ECB  00D0               	movwf	___fladd@b+1
  1005     0ECC  3000               	movlw	0
  1006     0ECD  00CF               	movwf	___fladd@b
  1007     0ECE  120A  118A  226A  120A  158A  	fcall	___fladd
  1008     0ED3  1283               	bcf	3,5	;RP0=0, select bank0
  1009     0ED4  1303               	bcf	3,6	;RP1=0, select bank0
  1010     0ED5  0852               	movf	?___fladd+3,w
  1011     0ED6  00E6               	movwf	___fltol@f1+3
  1012     0ED7  0851               	movf	?___fladd+2,w
  1013     0ED8  00E5               	movwf	___fltol@f1+2
  1014     0ED9  0850               	movf	?___fladd+1,w
  1015     0EDA  00E4               	movwf	___fltol@f1+1
  1016     0EDB  084F               	movf	?___fladd,w
  1017     0EDC  00E3               	movwf	___fltol@f1
  1018     0EDD  120A  118A  202A  120A  158A  	fcall	___fltol
  1019     0EE2  1283               	bcf	3,5	;RP0=0, select bank0
  1020     0EE3  1303               	bcf	3,6	;RP1=0, select bank0
  1021     0EE4  0864               	movf	?___fltol+1,w
  1022     0EE5  1683               	bsf	3,5	;RP0=1, select bank1
  1023     0EE6  1303               	bcf	3,6	;RP1=0, select bank1
  1024     0EE7  00A1               	movwf	(init_pwm@PR2_value+1)^(0+128)
  1025     0EE8  1283               	bcf	3,5	;RP0=0, select bank0
  1026     0EE9  1303               	bcf	3,6	;RP1=0, select bank0
  1027     0EEA  0863               	movf	?___fltol,w
  1028     0EEB  1683               	bsf	3,5	;RP0=1, select bank1
  1029     0EEC  1303               	bcf	3,6	;RP1=0, select bank1
  1030     0EED  00A0               	movwf	init_pwm@PR2_value^(0+128)
  1031     0EEE                     l1760:
  1032                           
  1033                           ;main.c: 31: 
  1034     0EEE  0820               	movf	init_pwm@PR2_value^(0+128),w
  1035     0EEF  0092               	movwf	18	;volatile
  1036     0EF0                     l19:
  1037     0EF0  0008               	return
  1038     0EF1                     __end_of_init_pwm:
  1039                           
  1040                           	psect	text3
  1041     0D74                     __ptext3:	
  1042 ;; *************** function ___xxtofl *****************
  1043 ;; Defined at:
  1044 ;;		line 10 in file "C:\Program Files\Microchip\xc8\v2.50\pic\sources\c99\common\xxtofl.c"
  1045 ;; Parameters:    Size  Location     Type
  1046 ;;  sign            1    wreg     unsigned char 
  1047 ;;  val             4    0[COMMON] long 
  1048 ;; Auto vars:     Size  Location     Type
  1049 ;;  sign            1    8[COMMON] unsigned char 
  1050 ;;  arg             4   10[COMMON] unsigned long 
  1051 ;;  exp             1    9[COMMON] unsigned char 
  1052 ;; Return value:  Size  Location     Type
  1053 ;;                  4    0[COMMON] unsigned char 
  1054 ;; Registers used:
  1055 ;;		wreg, status,2, status,0
  1056 ;; Tracked objects:
  1057 ;;		On entry : 0/0
  1058 ;;		On exit  : 0/0
  1059 ;;		Unchanged: 0/0
  1060 ;; Data sizes:     COMMON   BANK0   BANK1   BANK3   BANK2
  1061 ;;      Params:         4       0       0       0       0
  1062 ;;      Locals:         6       0       0       0       0
  1063 ;;      Temps:          4       0       0       0       0
  1064 ;;      Totals:        14       0       0       0       0
  1065 ;;Total ram usage:       14 bytes
  1066 ;; Hardware stack levels used: 1
  1067 ;; This function calls:
  1068 ;;		Nothing
  1069 ;; This function is called by:
  1070 ;;		_init_pwm
  1071 ;;		_set_duty_cycle_percent
  1072 ;; This function uses a non-reentrant model
  1073 ;;
  1074                           
  1075     0D74                     ___xxtofl:	
  1076                           ;psect for function ___xxtofl
  1077                           
  1078                           
  1079                           ;incstack = 0
  1080                           ; Regs used in ___xxtofl: [wreg+status,2+status,0]
  1081                           ;___xxtofl@sign stored from wreg
  1082     0D74  00F8               	movwf	___xxtofl@sign
  1083     0D75                     l1708:
  1084     0D75  0878               	movf	___xxtofl@sign,w
  1085     0D76  1903               	btfsc	3,2
  1086     0D77  2D79               	goto	u2651
  1087     0D78  2D7A               	goto	u2650
  1088     0D79                     u2651:
  1089     0D79  2D8E               	goto	l1714
  1090     0D7A                     u2650:
  1091     0D7A                     l1710:
  1092     0D7A  1FF3               	btfss	___xxtofl@val+3,7
  1093     0D7B  2D7D               	goto	u2661
  1094     0D7C  2D7E               	goto	u2660
  1095     0D7D                     u2661:
  1096     0D7D  2D8E               	goto	l1714
  1097     0D7E                     u2660:
  1098     0D7E                     l1712:
  1099     0D7E  0970               	comf	___xxtofl@val,w
  1100     0D7F  00FA               	movwf	___xxtofl@arg
  1101     0D80  0971               	comf	___xxtofl@val+1,w
  1102     0D81  00FB               	movwf	___xxtofl@arg+1
  1103     0D82  0972               	comf	___xxtofl@val+2,w
  1104     0D83  00FC               	movwf	___xxtofl@arg+2
  1105     0D84  0973               	comf	___xxtofl@val+3,w
  1106     0D85  00FD               	movwf	___xxtofl@arg+3
  1107     0D86  0AFA               	incf	___xxtofl@arg,f
  1108     0D87  1903               	skipnz
  1109     0D88  0AFB               	incf	___xxtofl@arg+1,f
  1110     0D89  1903               	skipnz
  1111     0D8A  0AFC               	incf	___xxtofl@arg+2,f
  1112     0D8B  1903               	skipnz
  1113     0D8C  0AFD               	incf	___xxtofl@arg+3,f
  1114     0D8D  2D96               	goto	l557
  1115     0D8E                     l1714:
  1116     0D8E  0873               	movf	___xxtofl@val+3,w
  1117     0D8F  00FD               	movwf	___xxtofl@arg+3
  1118     0D90  0872               	movf	___xxtofl@val+2,w
  1119     0D91  00FC               	movwf	___xxtofl@arg+2
  1120     0D92  0871               	movf	___xxtofl@val+1,w
  1121     0D93  00FB               	movwf	___xxtofl@arg+1
  1122     0D94  0870               	movf	___xxtofl@val,w
  1123     0D95  00FA               	movwf	___xxtofl@arg
  1124     0D96                     l557:
  1125     0D96  0873               	movf	___xxtofl@val+3,w
  1126     0D97  0472               	iorwf	___xxtofl@val+2,w
  1127     0D98  0471               	iorwf	___xxtofl@val+1,w
  1128     0D99  0470               	iorwf	___xxtofl@val,w
  1129     0D9A  1D03               	skipz
  1130     0D9B  2D9D               	goto	u2671
  1131     0D9C  2D9E               	goto	u2670
  1132     0D9D                     u2671:
  1133     0D9D  2DA7               	goto	l558
  1134     0D9E                     u2670:
  1135     0D9E                     l1716:
  1136     0D9E  3000               	movlw	0
  1137     0D9F  00F3               	movwf	?___xxtofl+3
  1138     0DA0  3000               	movlw	0
  1139     0DA1  00F2               	movwf	?___xxtofl+2
  1140     0DA2  3000               	movlw	0
  1141     0DA3  00F1               	movwf	?___xxtofl+1
  1142     0DA4  3000               	movlw	0
  1143     0DA5  00F0               	movwf	?___xxtofl
  1144     0DA6  2E27               	goto	l559
  1145     0DA7                     l558:
  1146     0DA7  3096               	movlw	150
  1147     0DA8  00F9               	movwf	___xxtofl@exp
  1148     0DA9  2DB5               	goto	l1722
  1149     0DAA                     l1720:
  1150     0DAA  3001               	movlw	1
  1151     0DAB  07F9               	addwf	___xxtofl@exp,f
  1152     0DAC  3001               	movlw	1
  1153     0DAD                     u2685:
  1154     0DAD  1003               	clrc
  1155     0DAE  0CFD               	rrf	___xxtofl@arg+3,f
  1156     0DAF  0CFC               	rrf	___xxtofl@arg+2,f
  1157     0DB0  0CFB               	rrf	___xxtofl@arg+1,f
  1158     0DB1  0CFA               	rrf	___xxtofl@arg,f
  1159     0DB2  3EFF               	addlw	-1
  1160     0DB3  1D03               	skipz
  1161     0DB4  2DAD               	goto	u2685
  1162     0DB5                     l1722:
  1163     0DB5  30FE               	movlw	254
  1164     0DB6  057D               	andwf	___xxtofl@arg+3,w
  1165     0DB7  1D03               	btfss	3,2
  1166     0DB8  2DBA               	goto	u2691
  1167     0DB9  2DBB               	goto	u2690
  1168     0DBA                     u2691:
  1169     0DBA  2DAA               	goto	l1720
  1170     0DBB                     u2690:
  1171     0DBB  2DD5               	goto	l563
  1172     0DBC                     l1724:
  1173     0DBC  3001               	movlw	1
  1174     0DBD  07F9               	addwf	___xxtofl@exp,f
  1175     0DBE                     l1726:
  1176     0DBE  3001               	movlw	1
  1177     0DBF  07FA               	addwf	___xxtofl@arg,f
  1178     0DC0  3000               	movlw	0
  1179     0DC1  1803               	skipnc
  1180     0DC2  3001               	movlw	1
  1181     0DC3  07FB               	addwf	___xxtofl@arg+1,f
  1182     0DC4  3000               	movlw	0
  1183     0DC5  1803               	skipnc
  1184     0DC6  3001               	movlw	1
  1185     0DC7  07FC               	addwf	___xxtofl@arg+2,f
  1186     0DC8  3000               	movlw	0
  1187     0DC9  1803               	skipnc
  1188     0DCA  3001               	movlw	1
  1189     0DCB  07FD               	addwf	___xxtofl@arg+3,f
  1190     0DCC                     l1728:
  1191     0DCC  3001               	movlw	1
  1192     0DCD                     u2705:
  1193     0DCD  1003               	clrc
  1194     0DCE  0CFD               	rrf	___xxtofl@arg+3,f
  1195     0DCF  0CFC               	rrf	___xxtofl@arg+2,f
  1196     0DD0  0CFB               	rrf	___xxtofl@arg+1,f
  1197     0DD1  0CFA               	rrf	___xxtofl@arg,f
  1198     0DD2  3EFF               	addlw	-1
  1199     0DD3  1D03               	skipz
  1200     0DD4  2DCD               	goto	u2705
  1201     0DD5                     l563:
  1202     0DD5  30FF               	movlw	255
  1203     0DD6  057D               	andwf	___xxtofl@arg+3,w
  1204     0DD7  1D03               	btfss	3,2
  1205     0DD8  2DDA               	goto	u2711
  1206     0DD9  2DDB               	goto	u2710
  1207     0DDA                     u2711:
  1208     0DDA  2DBC               	goto	l1724
  1209     0DDB                     u2710:
  1210     0DDB  2DE7               	goto	l1732
  1211     0DDC                     l1730:
  1212     0DDC  3001               	movlw	1
  1213     0DDD  02F9               	subwf	___xxtofl@exp,f
  1214     0DDE  3001               	movlw	1
  1215     0DDF  00F4               	movwf	??___xxtofl
  1216     0DE0                     u2725:
  1217     0DE0  1003               	clrc
  1218     0DE1  0DFA               	rlf	___xxtofl@arg,f
  1219     0DE2  0DFB               	rlf	___xxtofl@arg+1,f
  1220     0DE3  0DFC               	rlf	___xxtofl@arg+2,f
  1221     0DE4  0DFD               	rlf	___xxtofl@arg+3,f
  1222     0DE5  0BF4               	decfsz	??___xxtofl,f
  1223     0DE6  2DE0               	goto	u2725
  1224     0DE7                     l1732:
  1225     0DE7  1BFC               	btfsc	___xxtofl@arg+2,7
  1226     0DE8  2DEA               	goto	u2731
  1227     0DE9  2DEB               	goto	u2730
  1228     0DEA                     u2731:
  1229     0DEA  2DF1               	goto	l570
  1230     0DEB                     u2730:
  1231     0DEB                     l1734:
  1232     0DEB  3002               	movlw	2
  1233     0DEC  0279               	subwf	___xxtofl@exp,w
  1234     0DED  1803               	skipnc
  1235     0DEE  2DF0               	goto	u2741
  1236     0DEF  2DF1               	goto	u2740
  1237     0DF0                     u2741:
  1238     0DF0  2DDC               	goto	l1730
  1239     0DF1                     u2740:
  1240     0DF1                     l570:
  1241     0DF1  1879               	btfsc	___xxtofl@exp,0
  1242     0DF2  2DF4               	goto	u2751
  1243     0DF3  2DF5               	goto	u2750
  1244     0DF4                     u2751:
  1245     0DF4  2DFD               	goto	l571
  1246     0DF5                     u2750:
  1247     0DF5                     l1736:
  1248     0DF5  30FF               	movlw	255
  1249     0DF6  05FA               	andwf	___xxtofl@arg,f
  1250     0DF7  30FF               	movlw	255
  1251     0DF8  05FB               	andwf	___xxtofl@arg+1,f
  1252     0DF9  307F               	movlw	127
  1253     0DFA  05FC               	andwf	___xxtofl@arg+2,f
  1254     0DFB  30FF               	movlw	255
  1255     0DFC  05FD               	andwf	___xxtofl@arg+3,f
  1256     0DFD                     l571:
  1257     0DFD  1003               	clrc
  1258     0DFE  0CF9               	rrf	___xxtofl@exp,f
  1259     0DFF                     l1738:
  1260     0DFF  0879               	movf	___xxtofl@exp,w
  1261     0E00  00F4               	movwf	??___xxtofl
  1262     0E01  01F5               	clrf	??___xxtofl+1
  1263     0E02  01F6               	clrf	??___xxtofl+2
  1264     0E03  01F7               	clrf	??___xxtofl+3
  1265     0E04  3018               	movlw	24
  1266     0E05                     u2765:
  1267     0E05  1003               	clrc
  1268     0E06  0DF4               	rlf	??___xxtofl,f
  1269     0E07  0DF5               	rlf	??___xxtofl+1,f
  1270     0E08  0DF6               	rlf	??___xxtofl+2,f
  1271     0E09  0DF7               	rlf	??___xxtofl+3,f
  1272     0E0A                     u2760:
  1273     0E0A  3EFF               	addlw	-1
  1274     0E0B  1D03               	skipz
  1275     0E0C  2E05               	goto	u2765
  1276     0E0D  0874               	movf	??___xxtofl,w
  1277     0E0E  04FA               	iorwf	___xxtofl@arg,f
  1278     0E0F  0875               	movf	??___xxtofl+1,w
  1279     0E10  04FB               	iorwf	___xxtofl@arg+1,f
  1280     0E11  0876               	movf	??___xxtofl+2,w
  1281     0E12  04FC               	iorwf	___xxtofl@arg+2,f
  1282     0E13  0877               	movf	??___xxtofl+3,w
  1283     0E14  04FD               	iorwf	___xxtofl@arg+3,f
  1284     0E15                     l1740:
  1285     0E15  0878               	movf	___xxtofl@sign,w
  1286     0E16  1903               	btfsc	3,2
  1287     0E17  2E19               	goto	u2771
  1288     0E18  2E1A               	goto	u2770
  1289     0E19                     u2771:
  1290     0E19  2E1F               	goto	l1746
  1291     0E1A                     u2770:
  1292     0E1A                     l1742:
  1293     0E1A  1FF3               	btfss	___xxtofl@val+3,7
  1294     0E1B  2E1D               	goto	u2781
  1295     0E1C  2E1E               	goto	u2780
  1296     0E1D                     u2781:
  1297     0E1D  2E1F               	goto	l1746
  1298     0E1E                     u2780:
  1299     0E1E                     l1744:
  1300     0E1E  17FD               	bsf	___xxtofl@arg+3,7
  1301     0E1F                     l1746:
  1302     0E1F  087D               	movf	___xxtofl@arg+3,w
  1303     0E20  00F3               	movwf	?___xxtofl+3
  1304     0E21  087C               	movf	___xxtofl@arg+2,w
  1305     0E22  00F2               	movwf	?___xxtofl+2
  1306     0E23  087B               	movf	___xxtofl@arg+1,w
  1307     0E24  00F1               	movwf	?___xxtofl+1
  1308     0E25  087A               	movf	___xxtofl@arg,w
  1309     0E26  00F0               	movwf	?___xxtofl
  1310     0E27                     l559:
  1311     0E27  0008               	return
  1312     0E28                     __end_of___xxtofl:
  1313                           
  1314                           	psect	text4
  1315     002A                     __ptext4:	
  1316 ;; *************** function ___fltol *****************
  1317 ;; Defined at:
  1318 ;;		line 43 in file "C:\Program Files\Microchip\xc8\v2.50\pic\sources\c99\common\fltol.c"
  1319 ;; Parameters:    Size  Location     Type
  1320 ;;  f1              4   67[BANK0 ] unsigned char 
  1321 ;; Auto vars:     Size  Location     Type
  1322 ;;  exp1            1   76[BANK0 ] unsigned char 
  1323 ;;  sign1           1   75[BANK0 ] unsigned char 
  1324 ;; Return value:  Size  Location     Type
  1325 ;;                  4   67[BANK0 ] long 
  1326 ;; Registers used:
  1327 ;;		wreg, status,2, status,0
  1328 ;; Tracked objects:
  1329 ;;		On entry : 0/0
  1330 ;;		On exit  : 0/0
  1331 ;;		Unchanged: 0/0
  1332 ;; Data sizes:     COMMON   BANK0   BANK1   BANK3   BANK2
  1333 ;;      Params:         0       4       0       0       0
  1334 ;;      Locals:         0       2       0       0       0
  1335 ;;      Temps:          0       4       0       0       0
  1336 ;;      Totals:         0      10       0       0       0
  1337 ;;Total ram usage:       10 bytes
  1338 ;; Hardware stack levels used: 1
  1339 ;; This function calls:
  1340 ;;		Nothing
  1341 ;; This function is called by:
  1342 ;;		_init_pwm
  1343 ;;		_set_duty_cycle_percent
  1344 ;; This function uses a non-reentrant model
  1345 ;;
  1346                           
  1347     002A                     ___fltol:	
  1348                           ;psect for function ___fltol
  1349                           
  1350     002A                     l1188:	
  1351                           ;incstack = 0
  1352                           ; Regs used in ___fltol: [wreg+status,2+status,0]
  1353                           
  1354     002A  1003               	clrc
  1355     002B  1283               	bcf	3,5	;RP0=0, select bank0
  1356     002C  1303               	bcf	3,6	;RP1=0, select bank0
  1357     002D  0D65               	rlf	___fltol@f1+2,w
  1358     002E  0D66               	rlf	___fltol@f1+3,w
  1359     002F  00EC               	movwf	___fltol@exp1
  1360     0030  086C               	movf	___fltol@exp1,w
  1361     0031  1D03               	btfss	3,2
  1362     0032  2834               	goto	u1431
  1363     0033  2835               	goto	u1430
  1364     0034                     u1431:
  1365     0034  283E               	goto	l1194
  1366     0035                     u1430:
  1367     0035                     l1190:
  1368     0035  3000               	movlw	0
  1369     0036  00E6               	movwf	?___fltol+3
  1370     0037  3000               	movlw	0
  1371     0038  00E5               	movwf	?___fltol+2
  1372     0039  3000               	movlw	0
  1373     003A  00E4               	movwf	?___fltol+1
  1374     003B  3000               	movlw	0
  1375     003C  00E3               	movwf	?___fltol
  1376     003D  289F               	goto	l310
  1377     003E                     l1194:
  1378     003E  0863               	movf	___fltol@f1,w
  1379     003F  00E7               	movwf	??___fltol
  1380     0040  0864               	movf	___fltol@f1+1,w
  1381     0041  00E8               	movwf	??___fltol+1
  1382     0042  0865               	movf	___fltol@f1+2,w
  1383     0043  00E9               	movwf	??___fltol+2
  1384     0044  0866               	movf	___fltol@f1+3,w
  1385     0045  00EA               	movwf	??___fltol+3
  1386     0046  301F               	movlw	31
  1387     0047                     u1445:
  1388     0047  1003               	clrc
  1389     0048  0CEA               	rrf	??___fltol+3,f
  1390     0049  0CE9               	rrf	??___fltol+2,f
  1391     004A  0CE8               	rrf	??___fltol+1,f
  1392     004B  0CE7               	rrf	??___fltol,f
  1393     004C                     u1440:
  1394     004C  3EFF               	addlw	-1
  1395     004D  1D03               	skipz
  1396     004E  2847               	goto	u1445
  1397     004F  0867               	movf	??___fltol,w
  1398     0050  00EB               	movwf	___fltol@sign1
  1399     0051                     l1196:
  1400     0051  17E5               	bsf	___fltol@f1+2,7
  1401     0052                     l1198:
  1402     0052  30FF               	movlw	255
  1403     0053  05E3               	andwf	___fltol@f1,f
  1404     0054  30FF               	movlw	255
  1405     0055  05E4               	andwf	___fltol@f1+1,f
  1406     0056  30FF               	movlw	255
  1407     0057  05E5               	andwf	___fltol@f1+2,f
  1408     0058  3000               	movlw	0
  1409     0059  05E6               	andwf	___fltol@f1+3,f
  1410     005A                     l1200:
  1411     005A  3096               	movlw	150
  1412     005B  02EC               	subwf	___fltol@exp1,f
  1413     005C                     l1202:
  1414     005C  1FEC               	btfss	___fltol@exp1,7
  1415     005D  285F               	goto	u1451
  1416     005E  2860               	goto	u1450
  1417     005F                     u1451:
  1418     005F  2878               	goto	l1212
  1419     0060                     u1450:
  1420     0060                     l1204:
  1421     0060  086C               	movf	___fltol@exp1,w
  1422     0061  3A80               	xorlw	128
  1423     0062  3E97               	addlw	151
  1424     0063  1803               	skipnc
  1425     0064  2866               	goto	u1461
  1426     0065  2867               	goto	u1460
  1427     0066                     u1461:
  1428     0066  2868               	goto	l1210
  1429     0067                     u1460:
  1430     0067  2835               	goto	l1190
  1431     0068                     l1210:
  1432     0068  3001               	movlw	1
  1433     0069                     u1475:
  1434     0069  1003               	clrc
  1435     006A  0CE6               	rrf	___fltol@f1+3,f
  1436     006B  0CE5               	rrf	___fltol@f1+2,f
  1437     006C  0CE4               	rrf	___fltol@f1+1,f
  1438     006D  0CE3               	rrf	___fltol@f1,f
  1439     006E  3EFF               	addlw	-1
  1440     006F  1D03               	skipz
  1441     0070  2869               	goto	u1475
  1442     0071  3001               	movlw	1
  1443     0072  07EC               	addwf	___fltol@exp1,f
  1444     0073  1D03               	btfss	3,2
  1445     0074  2876               	goto	u1481
  1446     0075  2877               	goto	u1480
  1447     0076                     u1481:
  1448     0076  2868               	goto	l1210
  1449     0077                     u1480:
  1450     0077  288F               	goto	l1220
  1451     0078                     l1212:
  1452     0078  3020               	movlw	32
  1453     0079  026C               	subwf	___fltol@exp1,w
  1454     007A  1C03               	skipc
  1455     007B  287D               	goto	u1491
  1456     007C  287E               	goto	u1490
  1457     007D                     u1491:
  1458     007D  288A               	goto	l317
  1459     007E                     u1490:
  1460     007E  2835               	goto	l1190
  1461     007F                     l1218:
  1462     007F  3001               	movlw	1
  1463     0080  00E7               	movwf	??___fltol
  1464     0081                     u1505:
  1465     0081  1003               	clrc
  1466     0082  0DE3               	rlf	___fltol@f1,f
  1467     0083  0DE4               	rlf	___fltol@f1+1,f
  1468     0084  0DE5               	rlf	___fltol@f1+2,f
  1469     0085  0DE6               	rlf	___fltol@f1+3,f
  1470     0086  0BE7               	decfsz	??___fltol,f
  1471     0087  2881               	goto	u1505
  1472     0088  3001               	movlw	1
  1473     0089  02EC               	subwf	___fltol@exp1,f
  1474     008A                     l317:
  1475     008A  086C               	movf	___fltol@exp1,w
  1476     008B  1D03               	btfss	3,2
  1477     008C  288E               	goto	u1511
  1478     008D  288F               	goto	u1510
  1479     008E                     u1511:
  1480     008E  287F               	goto	l1218
  1481     008F                     u1510:
  1482     008F                     l1220:
  1483     008F  086B               	movf	___fltol@sign1,w
  1484     0090  1903               	btfsc	3,2
  1485     0091  2893               	goto	u1521
  1486     0092  2894               	goto	u1520
  1487     0093                     u1521:
  1488     0093  289F               	goto	l320
  1489     0094                     u1520:
  1490     0094                     l1222:
  1491     0094  09E3               	comf	___fltol@f1,f
  1492     0095  09E4               	comf	___fltol@f1+1,f
  1493     0096  09E5               	comf	___fltol@f1+2,f
  1494     0097  09E6               	comf	___fltol@f1+3,f
  1495     0098  0AE3               	incf	___fltol@f1,f
  1496     0099  1903               	skipnz
  1497     009A  0AE4               	incf	___fltol@f1+1,f
  1498     009B  1903               	skipnz
  1499     009C  0AE5               	incf	___fltol@f1+2,f
  1500     009D  1903               	skipnz
  1501     009E  0AE6               	incf	___fltol@f1+3,f
  1502     009F                     l320:
  1503     009F                     l310:
  1504     009F  0008               	return
  1505     00A0                     __end_of___fltol:
  1506                           
  1507                           	psect	text5
  1508     04BA                     __ptext5:	
  1509 ;; *************** function ___flmul *****************
  1510 ;; Defined at:
  1511 ;;		line 8 in file "C:\Program Files\Microchip\xc8\v2.50\pic\sources\c99\common\sprcmul.c"
  1512 ;; Parameters:    Size  Location     Type
  1513 ;;  b               4    0[BANK0 ] long 
  1514 ;;  a               4    4[BANK0 ] long 
  1515 ;; Auto vars:     Size  Location     Type
  1516 ;;  prod            4   15[BANK0 ] struct .
  1517 ;;  grs             4    9[BANK0 ] unsigned long 
  1518 ;;  temp            2   19[BANK0 ] struct .
  1519 ;;  bexp            1   14[BANK0 ] unsigned char 
  1520 ;;  aexp            1   13[BANK0 ] unsigned char 
  1521 ;;  sign            1    8[BANK0 ] unsigned char 
  1522 ;; Return value:  Size  Location     Type
  1523 ;;                  4    0[BANK0 ] unsigned char 
  1524 ;; Registers used:
  1525 ;;		wreg, status,2, status,0, btemp+1, pclath, cstack
  1526 ;; Tracked objects:
  1527 ;;		On entry : 0/0
  1528 ;;		On exit  : 0/0
  1529 ;;		Unchanged: 0/0
  1530 ;; Data sizes:     COMMON   BANK0   BANK1   BANK3   BANK2
  1531 ;;      Params:         0       8       0       0       0
  1532 ;;      Locals:         0      13       0       0       0
  1533 ;;      Temps:          5       0       0       0       0
  1534 ;;      Totals:         5      21       0       0       0
  1535 ;;Total ram usage:       26 bytes
  1536 ;; Hardware stack levels used: 1
  1537 ;; Hardware stack levels required when called: 1
  1538 ;; This function calls:
  1539 ;;		__Umul8_16
  1540 ;; This function is called by:
  1541 ;;		_init_pwm
  1542 ;;		_set_duty_cycle_percent
  1543 ;; This function uses a non-reentrant model
  1544 ;;
  1545                           
  1546     04BA                     ___flmul:	
  1547                           ;psect for function ___flmul
  1548                           
  1549     04BA                     l1566:	
  1550                           ;incstack = 0
  1551                           ; Regs used in ___flmul: [wreg+status,2+status,0+btemp+1+pclath+cstack]
  1552                           
  1553     04BA  1283               	bcf	3,5	;RP0=0, select bank0
  1554     04BB  1303               	bcf	3,6	;RP1=0, select bank0
  1555     04BC  0823               	movf	___flmul@b+3,w
  1556     04BD  00A8               	movwf	___flmul@sign
  1557     04BE                     l1568:
  1558     04BE  3080               	movlw	128
  1559     04BF  05A8               	andwf	___flmul@sign,f
  1560     04C0                     l1570:
  1561     04C0  0823               	movf	___flmul@b+3,w
  1562     04C1  00F9               	movwf	??___flmul
  1563     04C2  0779               	addwf	??___flmul,w
  1564     04C3  00AE               	movwf	___flmul@bexp
  1565     04C4                     l1572:
  1566     04C4  1FA2               	btfss	___flmul@b+2,7
  1567     04C5  2CC7               	goto	u2281
  1568     04C6  2CC8               	goto	u2280
  1569     04C7                     u2281:
  1570     04C7  2CC9               	goto	l1576
  1571     04C8                     u2280:
  1572     04C8                     l1574:
  1573     04C8  142E               	bsf	___flmul@bexp,0
  1574     04C9                     l1576:
  1575     04C9  082E               	movf	___flmul@bexp,w
  1576     04CA  1903               	btfsc	3,2
  1577     04CB  2CCD               	goto	u2291
  1578     04CC  2CCE               	goto	u2290
  1579     04CD                     u2291:
  1580     04CD  2CDD               	goto	l1584
  1581     04CE                     u2290:
  1582     04CE                     l1578:
  1583     04CE  0A2E               	incf	___flmul@bexp,w
  1584     04CF  1D03               	btfss	3,2
  1585     04D0  2CD2               	goto	u2301
  1586     04D1  2CD3               	goto	u2300
  1587     04D2                     u2301:
  1588     04D2  2CDB               	goto	l1582
  1589     04D3                     u2300:
  1590     04D3                     l1580:
  1591     04D3  3000               	movlw	0
  1592     04D4  00A3               	movwf	___flmul@b+3
  1593     04D5  3000               	movlw	0
  1594     04D6  00A2               	movwf	___flmul@b+2
  1595     04D7  3000               	movlw	0
  1596     04D8  00A1               	movwf	___flmul@b+1
  1597     04D9  3000               	movlw	0
  1598     04DA  00A0               	movwf	___flmul@b
  1599     04DB                     l1582:
  1600     04DB  17A2               	bsf	___flmul@b+2,7
  1601     04DC  2CE5               	goto	l1586
  1602     04DD                     l1584:
  1603     04DD  3000               	movlw	0
  1604     04DE  00A3               	movwf	___flmul@b+3
  1605     04DF  3000               	movlw	0
  1606     04E0  00A2               	movwf	___flmul@b+2
  1607     04E1  3000               	movlw	0
  1608     04E2  00A1               	movwf	___flmul@b+1
  1609     04E3  3000               	movlw	0
  1610     04E4  00A0               	movwf	___flmul@b
  1611     04E5                     l1586:
  1612     04E5  0827               	movf	___flmul@a+3,w
  1613     04E6  3980               	andlw	128
  1614     04E7  06A8               	xorwf	___flmul@sign,f
  1615     04E8                     l1588:
  1616     04E8  0827               	movf	___flmul@a+3,w
  1617     04E9  00F9               	movwf	??___flmul
  1618     04EA  0779               	addwf	??___flmul,w
  1619     04EB  00AD               	movwf	___flmul@aexp
  1620     04EC                     l1590:
  1621     04EC  1FA6               	btfss	___flmul@a+2,7
  1622     04ED  2CEF               	goto	u2311
  1623     04EE  2CF0               	goto	u2310
  1624     04EF                     u2311:
  1625     04EF  2CF1               	goto	l1594
  1626     04F0                     u2310:
  1627     04F0                     l1592:
  1628     04F0  142D               	bsf	___flmul@aexp,0
  1629     04F1                     l1594:
  1630     04F1  082D               	movf	___flmul@aexp,w
  1631     04F2  1903               	btfsc	3,2
  1632     04F3  2CF5               	goto	u2321
  1633     04F4  2CF6               	goto	u2320
  1634     04F5                     u2321:
  1635     04F5  2D05               	goto	l1602
  1636     04F6                     u2320:
  1637     04F6                     l1596:
  1638     04F6  0A2D               	incf	___flmul@aexp,w
  1639     04F7  1D03               	btfss	3,2
  1640     04F8  2CFA               	goto	u2331
  1641     04F9  2CFB               	goto	u2330
  1642     04FA                     u2331:
  1643     04FA  2D03               	goto	l1600
  1644     04FB                     u2330:
  1645     04FB                     l1598:
  1646     04FB  3000               	movlw	0
  1647     04FC  00A7               	movwf	___flmul@a+3
  1648     04FD  3000               	movlw	0
  1649     04FE  00A6               	movwf	___flmul@a+2
  1650     04FF  3000               	movlw	0
  1651     0500  00A5               	movwf	___flmul@a+1
  1652     0501  3000               	movlw	0
  1653     0502  00A4               	movwf	___flmul@a
  1654     0503                     l1600:
  1655     0503  17A6               	bsf	___flmul@a+2,7
  1656     0504  2D0D               	goto	l1604
  1657     0505                     l1602:
  1658     0505  3000               	movlw	0
  1659     0506  00A7               	movwf	___flmul@a+3
  1660     0507  3000               	movlw	0
  1661     0508  00A6               	movwf	___flmul@a+2
  1662     0509  3000               	movlw	0
  1663     050A  00A5               	movwf	___flmul@a+1
  1664     050B  3000               	movlw	0
  1665     050C  00A4               	movwf	___flmul@a
  1666     050D                     l1604:
  1667     050D  082D               	movf	___flmul@aexp,w
  1668     050E  1903               	btfsc	3,2
  1669     050F  2D11               	goto	u2341
  1670     0510  2D12               	goto	u2340
  1671     0511                     u2341:
  1672     0511  2D17               	goto	l1608
  1673     0512                     u2340:
  1674     0512                     l1606:
  1675     0512  082E               	movf	___flmul@bexp,w
  1676     0513  1D03               	btfss	3,2
  1677     0514  2D16               	goto	u2351
  1678     0515  2D17               	goto	u2350
  1679     0516                     u2351:
  1680     0516  2D20               	goto	l1612
  1681     0517                     u2350:
  1682     0517                     l1608:
  1683     0517  3000               	movlw	0
  1684     0518  00A3               	movwf	?___flmul+3
  1685     0519  3000               	movlw	0
  1686     051A  00A2               	movwf	?___flmul+2
  1687     051B  3000               	movlw	0
  1688     051C  00A1               	movwf	?___flmul+1
  1689     051D  3000               	movlw	0
  1690     051E  00A0               	movwf	?___flmul
  1691     051F  2FFB               	goto	l513
  1692     0520                     l1612:
  1693     0520  0820               	movf	___flmul@b,w
  1694     0521  00F0               	movwf	__Umul8_16@multiplicand
  1695     0522  0826               	movf	___flmul@a+2,w
  1696     0523  120A  118A  2003  120A  118A  	fcall	__Umul8_16
  1697     0528  0871               	movf	?__Umul8_16+1,w
  1698     0529  1283               	bcf	3,5	;RP0=0, select bank0
  1699     052A  1303               	bcf	3,6	;RP1=0, select bank0
  1700     052B  00B4               	movwf	___flmul@temp+1
  1701     052C  0870               	movf	?__Umul8_16,w
  1702     052D  00B3               	movwf	___flmul@temp
  1703     052E                     l1614:
  1704     052E  0833               	movf	___flmul@temp,w
  1705     052F  00F9               	movwf	??___flmul
  1706     0530  01FA               	clrf	??___flmul+1
  1707     0531  01FB               	clrf	??___flmul+2
  1708     0532  01FC               	clrf	??___flmul+3
  1709     0533  087C               	movf	??___flmul+3,w
  1710     0534  00AC               	movwf	___flmul@grs+3
  1711     0535  087B               	movf	??___flmul+2,w
  1712     0536  00AB               	movwf	___flmul@grs+2
  1713     0537  087A               	movf	??___flmul+1,w
  1714     0538  00AA               	movwf	___flmul@grs+1
  1715     0539  0879               	movf	??___flmul,w
  1716     053A  00A9               	movwf	___flmul@grs
  1717     053B                     l1616:
  1718     053B  0834               	movf	___flmul@temp+1,w
  1719     053C  00F9               	movwf	??___flmul
  1720     053D  01FA               	clrf	??___flmul+1
  1721     053E  01FB               	clrf	??___flmul+2
  1722     053F  01FC               	clrf	??___flmul+3
  1723     0540  087C               	movf	??___flmul+3,w
  1724     0541  00B2               	movwf	___flmul@prod+3
  1725     0542  087B               	movf	??___flmul+2,w
  1726     0543  00B1               	movwf	___flmul@prod+2
  1727     0544  087A               	movf	??___flmul+1,w
  1728     0545  00B0               	movwf	___flmul@prod+1
  1729     0546  0879               	movf	??___flmul,w
  1730     0547  00AF               	movwf	___flmul@prod
  1731     0548  0821               	movf	___flmul@b+1,w
  1732     0549  00F0               	movwf	__Umul8_16@multiplicand
  1733     054A  0825               	movf	___flmul@a+1,w
  1734     054B  120A  118A  2003  120A  118A  	fcall	__Umul8_16
  1735     0550  0871               	movf	?__Umul8_16+1,w
  1736     0551  1283               	bcf	3,5	;RP0=0, select bank0
  1737     0552  1303               	bcf	3,6	;RP1=0, select bank0
  1738     0553  00B4               	movwf	___flmul@temp+1
  1739     0554  0870               	movf	?__Umul8_16,w
  1740     0555  00B3               	movwf	___flmul@temp
  1741     0556                     l1618:
  1742     0556  0833               	movf	___flmul@temp,w
  1743     0557  00F9               	movwf	??___flmul
  1744     0558  01FA               	clrf	??___flmul+1
  1745     0559  01FB               	clrf	??___flmul+2
  1746     055A  01FC               	clrf	??___flmul+3
  1747     055B  0879               	movf	??___flmul,w
  1748     055C  07A9               	addwf	___flmul@grs,f
  1749     055D  087A               	movf	??___flmul+1,w
  1750     055E  1103               	clrz
  1751     055F  1803               	skipnc
  1752     0560  3E01               	addlw	1
  1753     0561  1903               	skipnz
  1754     0562  2D64               	goto	u2361
  1755     0563  07AA               	addwf	___flmul@grs+1,f
  1756     0564                     u2361:
  1757     0564  087B               	movf	??___flmul+2,w
  1758     0565  1103               	clrz
  1759     0566  1803               	skipnc
  1760     0567  3E01               	addlw	1
  1761     0568  1903               	skipnz
  1762     0569  2D6B               	goto	u2362
  1763     056A  07AB               	addwf	___flmul@grs+2,f
  1764     056B                     u2362:
  1765     056B  087C               	movf	??___flmul+3,w
  1766     056C  1103               	clrz
  1767     056D  1803               	skipnc
  1768     056E  3E01               	addlw	1
  1769     056F  1903               	skipnz
  1770     0570  2D72               	goto	u2363
  1771     0571  07AC               	addwf	___flmul@grs+3,f
  1772     0572                     u2363:
  1773     0572                     l1620:
  1774     0572  0834               	movf	___flmul@temp+1,w
  1775     0573  00F9               	movwf	??___flmul
  1776     0574  01FA               	clrf	??___flmul+1
  1777     0575  01FB               	clrf	??___flmul+2
  1778     0576  01FC               	clrf	??___flmul+3
  1779     0577  0879               	movf	??___flmul,w
  1780     0578  07AF               	addwf	___flmul@prod,f
  1781     0579  087A               	movf	??___flmul+1,w
  1782     057A  1103               	clrz
  1783     057B  1803               	skipnc
  1784     057C  3E01               	addlw	1
  1785     057D  1903               	skipnz
  1786     057E  2D80               	goto	u2371
  1787     057F  07B0               	addwf	___flmul@prod+1,f
  1788     0580                     u2371:
  1789     0580  087B               	movf	??___flmul+2,w
  1790     0581  1103               	clrz
  1791     0582  1803               	skipnc
  1792     0583  3E01               	addlw	1
  1793     0584  1903               	skipnz
  1794     0585  2D87               	goto	u2372
  1795     0586  07B1               	addwf	___flmul@prod+2,f
  1796     0587                     u2372:
  1797     0587  087C               	movf	??___flmul+3,w
  1798     0588  1103               	clrz
  1799     0589  1803               	skipnc
  1800     058A  3E01               	addlw	1
  1801     058B  1903               	skipnz
  1802     058C  2D8E               	goto	u2373
  1803     058D  07B2               	addwf	___flmul@prod+3,f
  1804     058E                     u2373:
  1805     058E  0822               	movf	___flmul@b+2,w
  1806     058F  00F0               	movwf	__Umul8_16@multiplicand
  1807     0590  0824               	movf	___flmul@a,w
  1808     0591  120A  118A  2003  120A  118A  	fcall	__Umul8_16
  1809     0596  0871               	movf	?__Umul8_16+1,w
  1810     0597  1283               	bcf	3,5	;RP0=0, select bank0
  1811     0598  1303               	bcf	3,6	;RP1=0, select bank0
  1812     0599  00B4               	movwf	___flmul@temp+1
  1813     059A  0870               	movf	?__Umul8_16,w
  1814     059B  00B3               	movwf	___flmul@temp
  1815     059C                     l1622:
  1816     059C  0833               	movf	___flmul@temp,w
  1817     059D  00F9               	movwf	??___flmul
  1818     059E  01FA               	clrf	??___flmul+1
  1819     059F  01FB               	clrf	??___flmul+2
  1820     05A0  01FC               	clrf	??___flmul+3
  1821     05A1  0879               	movf	??___flmul,w
  1822     05A2  07A9               	addwf	___flmul@grs,f
  1823     05A3  087A               	movf	??___flmul+1,w
  1824     05A4  1103               	clrz
  1825     05A5  1803               	skipnc
  1826     05A6  3E01               	addlw	1
  1827     05A7  1903               	skipnz
  1828     05A8  2DAA               	goto	u2381
  1829     05A9  07AA               	addwf	___flmul@grs+1,f
  1830     05AA                     u2381:
  1831     05AA  087B               	movf	??___flmul+2,w
  1832     05AB  1103               	clrz
  1833     05AC  1803               	skipnc
  1834     05AD  3E01               	addlw	1
  1835     05AE  1903               	skipnz
  1836     05AF  2DB1               	goto	u2382
  1837     05B0  07AB               	addwf	___flmul@grs+2,f
  1838     05B1                     u2382:
  1839     05B1  087C               	movf	??___flmul+3,w
  1840     05B2  1103               	clrz
  1841     05B3  1803               	skipnc
  1842     05B4  3E01               	addlw	1
  1843     05B5  1903               	skipnz
  1844     05B6  2DB8               	goto	u2383
  1845     05B7  07AC               	addwf	___flmul@grs+3,f
  1846     05B8                     u2383:
  1847     05B8                     l1624:
  1848     05B8  0834               	movf	___flmul@temp+1,w
  1849     05B9  00F9               	movwf	??___flmul
  1850     05BA  01FA               	clrf	??___flmul+1
  1851     05BB  01FB               	clrf	??___flmul+2
  1852     05BC  01FC               	clrf	??___flmul+3
  1853     05BD  0879               	movf	??___flmul,w
  1854     05BE  07AF               	addwf	___flmul@prod,f
  1855     05BF  087A               	movf	??___flmul+1,w
  1856     05C0  1103               	clrz
  1857     05C1  1803               	skipnc
  1858     05C2  3E01               	addlw	1
  1859     05C3  1903               	skipnz
  1860     05C4  2DC6               	goto	u2391
  1861     05C5  07B0               	addwf	___flmul@prod+1,f
  1862     05C6                     u2391:
  1863     05C6  087B               	movf	??___flmul+2,w
  1864     05C7  1103               	clrz
  1865     05C8  1803               	skipnc
  1866     05C9  3E01               	addlw	1
  1867     05CA  1903               	skipnz
  1868     05CB  2DCD               	goto	u2392
  1869     05CC  07B1               	addwf	___flmul@prod+2,f
  1870     05CD                     u2392:
  1871     05CD  087C               	movf	??___flmul+3,w
  1872     05CE  1103               	clrz
  1873     05CF  1803               	skipnc
  1874     05D0  3E01               	addlw	1
  1875     05D1  1903               	skipnz
  1876     05D2  2DD4               	goto	u2393
  1877     05D3  07B2               	addwf	___flmul@prod+3,f
  1878     05D4                     u2393:
  1879     05D4                     l1626:
  1880     05D4  3008               	movlw	8
  1881     05D5  00F9               	movwf	??___flmul
  1882     05D6                     u2405:
  1883     05D6  1003               	clrc
  1884     05D7  0DA9               	rlf	___flmul@grs,f
  1885     05D8  0DAA               	rlf	___flmul@grs+1,f
  1886     05D9  0DAB               	rlf	___flmul@grs+2,f
  1887     05DA  0DAC               	rlf	___flmul@grs+3,f
  1888     05DB  0BF9               	decfsz	??___flmul,f
  1889     05DC  2DD6               	goto	u2405
  1890     05DD                     l1628:
  1891     05DD  0821               	movf	___flmul@b+1,w
  1892     05DE  00F0               	movwf	__Umul8_16@multiplicand
  1893     05DF  0824               	movf	___flmul@a,w
  1894     05E0  120A  118A  2003  120A  118A  	fcall	__Umul8_16
  1895     05E5  0871               	movf	?__Umul8_16+1,w
  1896     05E6  1283               	bcf	3,5	;RP0=0, select bank0
  1897     05E7  1303               	bcf	3,6	;RP1=0, select bank0
  1898     05E8  00B4               	movwf	___flmul@temp+1
  1899     05E9  0870               	movf	?__Umul8_16,w
  1900     05EA  00B3               	movwf	___flmul@temp
  1901     05EB                     l1630:
  1902     05EB  0833               	movf	___flmul@temp,w
  1903     05EC  00F9               	movwf	??___flmul
  1904     05ED  0834               	movf	___flmul@temp+1,w
  1905     05EE  00FA               	movwf	??___flmul+1
  1906     05EF  01FB               	clrf	??___flmul+2
  1907     05F0  01FC               	clrf	??___flmul+3
  1908     05F1  0879               	movf	??___flmul,w
  1909     05F2  07A9               	addwf	___flmul@grs,f
  1910     05F3  087A               	movf	??___flmul+1,w
  1911     05F4  1103               	clrz
  1912     05F5  1803               	skipnc
  1913     05F6  3E01               	addlw	1
  1914     05F7  1903               	skipnz
  1915     05F8  2DFA               	goto	u2411
  1916     05F9  07AA               	addwf	___flmul@grs+1,f
  1917     05FA                     u2411:
  1918     05FA  087B               	movf	??___flmul+2,w
  1919     05FB  1103               	clrz
  1920     05FC  1803               	skipnc
  1921     05FD  3E01               	addlw	1
  1922     05FE  1903               	skipnz
  1923     05FF  2E01               	goto	u2412
  1924     0600  07AB               	addwf	___flmul@grs+2,f
  1925     0601                     u2412:
  1926     0601  087C               	movf	??___flmul+3,w
  1927     0602  1103               	clrz
  1928     0603  1803               	skipnc
  1929     0604  3E01               	addlw	1
  1930     0605  1903               	skipnz
  1931     0606  2E08               	goto	u2413
  1932     0607  07AC               	addwf	___flmul@grs+3,f
  1933     0608                     u2413:
  1934     0608                     l1632:
  1935     0608  0820               	movf	___flmul@b,w
  1936     0609  00F0               	movwf	__Umul8_16@multiplicand
  1937     060A  0825               	movf	___flmul@a+1,w
  1938     060B  120A  118A  2003  120A  118A  	fcall	__Umul8_16
  1939     0610  0871               	movf	?__Umul8_16+1,w
  1940     0611  1283               	bcf	3,5	;RP0=0, select bank0
  1941     0612  1303               	bcf	3,6	;RP1=0, select bank0
  1942     0613  00B4               	movwf	___flmul@temp+1
  1943     0614  0870               	movf	?__Umul8_16,w
  1944     0615  00B3               	movwf	___flmul@temp
  1945     0616                     l1634:
  1946     0616  0833               	movf	___flmul@temp,w
  1947     0617  00F9               	movwf	??___flmul
  1948     0618  0834               	movf	___flmul@temp+1,w
  1949     0619  00FA               	movwf	??___flmul+1
  1950     061A  01FB               	clrf	??___flmul+2
  1951     061B  01FC               	clrf	??___flmul+3
  1952     061C  0879               	movf	??___flmul,w
  1953     061D  07A9               	addwf	___flmul@grs,f
  1954     061E  087A               	movf	??___flmul+1,w
  1955     061F  1103               	clrz
  1956     0620  1803               	skipnc
  1957     0621  3E01               	addlw	1
  1958     0622  1903               	skipnz
  1959     0623  2E25               	goto	u2421
  1960     0624  07AA               	addwf	___flmul@grs+1,f
  1961     0625                     u2421:
  1962     0625  087B               	movf	??___flmul+2,w
  1963     0626  1103               	clrz
  1964     0627  1803               	skipnc
  1965     0628  3E01               	addlw	1
  1966     0629  1903               	skipnz
  1967     062A  2E2C               	goto	u2422
  1968     062B  07AB               	addwf	___flmul@grs+2,f
  1969     062C                     u2422:
  1970     062C  087C               	movf	??___flmul+3,w
  1971     062D  1103               	clrz
  1972     062E  1803               	skipnc
  1973     062F  3E01               	addlw	1
  1974     0630  1903               	skipnz
  1975     0631  2E33               	goto	u2423
  1976     0632  07AC               	addwf	___flmul@grs+3,f
  1977     0633                     u2423:
  1978     0633                     l1636:
  1979     0633  3008               	movlw	8
  1980     0634  00F9               	movwf	??___flmul
  1981     0635                     u2435:
  1982     0635  1003               	clrc
  1983     0636  0DA9               	rlf	___flmul@grs,f
  1984     0637  0DAA               	rlf	___flmul@grs+1,f
  1985     0638  0DAB               	rlf	___flmul@grs+2,f
  1986     0639  0DAC               	rlf	___flmul@grs+3,f
  1987     063A  0BF9               	decfsz	??___flmul,f
  1988     063B  2E35               	goto	u2435
  1989     063C  0820               	movf	___flmul@b,w
  1990     063D  00F0               	movwf	__Umul8_16@multiplicand
  1991     063E  0824               	movf	___flmul@a,w
  1992     063F  120A  118A  2003  120A  118A  	fcall	__Umul8_16
  1993     0644  0871               	movf	?__Umul8_16+1,w
  1994     0645  1283               	bcf	3,5	;RP0=0, select bank0
  1995     0646  1303               	bcf	3,6	;RP1=0, select bank0
  1996     0647  00B4               	movwf	___flmul@temp+1
  1997     0648  0870               	movf	?__Umul8_16,w
  1998     0649  00B3               	movwf	___flmul@temp
  1999     064A                     l1638:
  2000     064A  0833               	movf	___flmul@temp,w
  2001     064B  00F9               	movwf	??___flmul
  2002     064C  0834               	movf	___flmul@temp+1,w
  2003     064D  00FA               	movwf	??___flmul+1
  2004     064E  01FB               	clrf	??___flmul+2
  2005     064F  01FC               	clrf	??___flmul+3
  2006     0650  0879               	movf	??___flmul,w
  2007     0651  07A9               	addwf	___flmul@grs,f
  2008     0652  087A               	movf	??___flmul+1,w
  2009     0653  1103               	clrz
  2010     0654  1803               	skipnc
  2011     0655  3E01               	addlw	1
  2012     0656  1903               	skipnz
  2013     0657  2E59               	goto	u2441
  2014     0658  07AA               	addwf	___flmul@grs+1,f
  2015     0659                     u2441:
  2016     0659  087B               	movf	??___flmul+2,w
  2017     065A  1103               	clrz
  2018     065B  1803               	skipnc
  2019     065C  3E01               	addlw	1
  2020     065D  1903               	skipnz
  2021     065E  2E60               	goto	u2442
  2022     065F  07AB               	addwf	___flmul@grs+2,f
  2023     0660                     u2442:
  2024     0660  087C               	movf	??___flmul+3,w
  2025     0661  1103               	clrz
  2026     0662  1803               	skipnc
  2027     0663  3E01               	addlw	1
  2028     0664  1903               	skipnz
  2029     0665  2E67               	goto	u2443
  2030     0666  07AC               	addwf	___flmul@grs+3,f
  2031     0667                     u2443:
  2032     0667                     l1640:
  2033     0667  0821               	movf	___flmul@b+1,w
  2034     0668  00F0               	movwf	__Umul8_16@multiplicand
  2035     0669  0826               	movf	___flmul@a+2,w
  2036     066A  120A  118A  2003  120A  118A  	fcall	__Umul8_16
  2037     066F  0871               	movf	?__Umul8_16+1,w
  2038     0670  1283               	bcf	3,5	;RP0=0, select bank0
  2039     0671  1303               	bcf	3,6	;RP1=0, select bank0
  2040     0672  00B4               	movwf	___flmul@temp+1
  2041     0673  0870               	movf	?__Umul8_16,w
  2042     0674  00B3               	movwf	___flmul@temp
  2043     0675  0833               	movf	___flmul@temp,w
  2044     0676  00F9               	movwf	??___flmul
  2045     0677  0834               	movf	___flmul@temp+1,w
  2046     0678  00FA               	movwf	??___flmul+1
  2047     0679  01FB               	clrf	??___flmul+2
  2048     067A  01FC               	clrf	??___flmul+3
  2049     067B  0879               	movf	??___flmul,w
  2050     067C  07AF               	addwf	___flmul@prod,f
  2051     067D  087A               	movf	??___flmul+1,w
  2052     067E  1103               	clrz
  2053     067F  1803               	skipnc
  2054     0680  3E01               	addlw	1
  2055     0681  1903               	skipnz
  2056     0682  2E84               	goto	u2451
  2057     0683  07B0               	addwf	___flmul@prod+1,f
  2058     0684                     u2451:
  2059     0684  087B               	movf	??___flmul+2,w
  2060     0685  1103               	clrz
  2061     0686  1803               	skipnc
  2062     0687  3E01               	addlw	1
  2063     0688  1903               	skipnz
  2064     0689  2E8B               	goto	u2452
  2065     068A  07B1               	addwf	___flmul@prod+2,f
  2066     068B                     u2452:
  2067     068B  087C               	movf	??___flmul+3,w
  2068     068C  1103               	clrz
  2069     068D  1803               	skipnc
  2070     068E  3E01               	addlw	1
  2071     068F  1903               	skipnz
  2072     0690  2E92               	goto	u2453
  2073     0691  07B2               	addwf	___flmul@prod+3,f
  2074     0692                     u2453:
  2075     0692                     l1642:
  2076     0692  0822               	movf	___flmul@b+2,w
  2077     0693  00F0               	movwf	__Umul8_16@multiplicand
  2078     0694  0825               	movf	___flmul@a+1,w
  2079     0695  120A  118A  2003  120A  118A  	fcall	__Umul8_16
  2080     069A  0871               	movf	?__Umul8_16+1,w
  2081     069B  1283               	bcf	3,5	;RP0=0, select bank0
  2082     069C  1303               	bcf	3,6	;RP1=0, select bank0
  2083     069D  00B4               	movwf	___flmul@temp+1
  2084     069E  0870               	movf	?__Umul8_16,w
  2085     069F  00B3               	movwf	___flmul@temp
  2086     06A0                     l1644:
  2087     06A0  0833               	movf	___flmul@temp,w
  2088     06A1  00F9               	movwf	??___flmul
  2089     06A2  0834               	movf	___flmul@temp+1,w
  2090     06A3  00FA               	movwf	??___flmul+1
  2091     06A4  01FB               	clrf	??___flmul+2
  2092     06A5  01FC               	clrf	??___flmul+3
  2093     06A6  0879               	movf	??___flmul,w
  2094     06A7  07AF               	addwf	___flmul@prod,f
  2095     06A8  087A               	movf	??___flmul+1,w
  2096     06A9  1103               	clrz
  2097     06AA  1803               	skipnc
  2098     06AB  3E01               	addlw	1
  2099     06AC  1903               	skipnz
  2100     06AD  2EAF               	goto	u2461
  2101     06AE  07B0               	addwf	___flmul@prod+1,f
  2102     06AF                     u2461:
  2103     06AF  087B               	movf	??___flmul+2,w
  2104     06B0  1103               	clrz
  2105     06B1  1803               	skipnc
  2106     06B2  3E01               	addlw	1
  2107     06B3  1903               	skipnz
  2108     06B4  2EB6               	goto	u2462
  2109     06B5  07B1               	addwf	___flmul@prod+2,f
  2110     06B6                     u2462:
  2111     06B6  087C               	movf	??___flmul+3,w
  2112     06B7  1103               	clrz
  2113     06B8  1803               	skipnc
  2114     06B9  3E01               	addlw	1
  2115     06BA  1903               	skipnz
  2116     06BB  2EBD               	goto	u2463
  2117     06BC  07B2               	addwf	___flmul@prod+3,f
  2118     06BD                     u2463:
  2119     06BD  0822               	movf	___flmul@b+2,w
  2120     06BE  00F0               	movwf	__Umul8_16@multiplicand
  2121     06BF  0826               	movf	___flmul@a+2,w
  2122     06C0  120A  118A  2003  120A  118A  	fcall	__Umul8_16
  2123     06C5  0871               	movf	?__Umul8_16+1,w
  2124     06C6  1283               	bcf	3,5	;RP0=0, select bank0
  2125     06C7  1303               	bcf	3,6	;RP1=0, select bank0
  2126     06C8  00B4               	movwf	___flmul@temp+1
  2127     06C9  0870               	movf	?__Umul8_16,w
  2128     06CA  00B3               	movwf	___flmul@temp
  2129     06CB                     l1646:
  2130     06CB  0833               	movf	___flmul@temp,w
  2131     06CC  00F9               	movwf	??___flmul
  2132     06CD  0834               	movf	___flmul@temp+1,w
  2133     06CE  00FA               	movwf	??___flmul+1
  2134     06CF  01FB               	clrf	??___flmul+2
  2135     06D0  01FC               	clrf	??___flmul+3
  2136     06D1  3008               	movlw	8
  2137     06D2                     u2475:
  2138     06D2  1003               	clrc
  2139     06D3  0DF9               	rlf	??___flmul,f
  2140     06D4  0DFA               	rlf	??___flmul+1,f
  2141     06D5  0DFB               	rlf	??___flmul+2,f
  2142     06D6  0DFC               	rlf	??___flmul+3,f
  2143     06D7                     u2470:
  2144     06D7  3EFF               	addlw	-1
  2145     06D8  1D03               	skipz
  2146     06D9  2ED2               	goto	u2475
  2147     06DA  0879               	movf	??___flmul,w
  2148     06DB  07AF               	addwf	___flmul@prod,f
  2149     06DC  087A               	movf	??___flmul+1,w
  2150     06DD  1103               	clrz
  2151     06DE  1803               	skipnc
  2152     06DF  3E01               	addlw	1
  2153     06E0  1903               	skipnz
  2154     06E1  2EE3               	goto	u2481
  2155     06E2  07B0               	addwf	___flmul@prod+1,f
  2156     06E3                     u2481:
  2157     06E3  087B               	movf	??___flmul+2,w
  2158     06E4  1103               	clrz
  2159     06E5  1803               	skipnc
  2160     06E6  3E01               	addlw	1
  2161     06E7  1903               	skipnz
  2162     06E8  2EEA               	goto	u2482
  2163     06E9  07B1               	addwf	___flmul@prod+2,f
  2164     06EA                     u2482:
  2165     06EA  087C               	movf	??___flmul+3,w
  2166     06EB  1103               	clrz
  2167     06EC  1803               	skipnc
  2168     06ED  3E01               	addlw	1
  2169     06EE  1903               	skipnz
  2170     06EF  2EF1               	goto	u2483
  2171     06F0  07B2               	addwf	___flmul@prod+3,f
  2172     06F1                     u2483:
  2173     06F1                     l1648:
  2174     06F1  0829               	movf	___flmul@grs,w
  2175     06F2  00F9               	movwf	??___flmul
  2176     06F3  082A               	movf	___flmul@grs+1,w
  2177     06F4  00FA               	movwf	??___flmul+1
  2178     06F5  082B               	movf	___flmul@grs+2,w
  2179     06F6  00FB               	movwf	??___flmul+2
  2180     06F7  082C               	movf	___flmul@grs+3,w
  2181     06F8  00FC               	movwf	??___flmul+3
  2182     06F9  3018               	movlw	24
  2183     06FA                     u2495:
  2184     06FA  1003               	clrc
  2185     06FB  0CFC               	rrf	??___flmul+3,f
  2186     06FC  0CFB               	rrf	??___flmul+2,f
  2187     06FD  0CFA               	rrf	??___flmul+1,f
  2188     06FE  0CF9               	rrf	??___flmul,f
  2189     06FF                     u2490:
  2190     06FF  3EFF               	addlw	-1
  2191     0700  1D03               	skipz
  2192     0701  2EFA               	goto	u2495
  2193     0702  0879               	movf	??___flmul,w
  2194     0703  07AF               	addwf	___flmul@prod,f
  2195     0704  087A               	movf	??___flmul+1,w
  2196     0705  1103               	clrz
  2197     0706  1803               	skipnc
  2198     0707  3E01               	addlw	1
  2199     0708  1903               	skipnz
  2200     0709  2F0B               	goto	u2501
  2201     070A  07B0               	addwf	___flmul@prod+1,f
  2202     070B                     u2501:
  2203     070B  087B               	movf	??___flmul+2,w
  2204     070C  1103               	clrz
  2205     070D  1803               	skipnc
  2206     070E  3E01               	addlw	1
  2207     070F  1903               	skipnz
  2208     0710  2F12               	goto	u2502
  2209     0711  07B1               	addwf	___flmul@prod+2,f
  2210     0712                     u2502:
  2211     0712  087C               	movf	??___flmul+3,w
  2212     0713  1103               	clrz
  2213     0714  1803               	skipnc
  2214     0715  3E01               	addlw	1
  2215     0716  1903               	skipnz
  2216     0717  2F19               	goto	u2503
  2217     0718  07B2               	addwf	___flmul@prod+3,f
  2218     0719                     u2503:
  2219     0719                     l1650:
  2220     0719  3008               	movlw	8
  2221     071A  00F9               	movwf	??___flmul
  2222     071B                     u2515:
  2223     071B  1003               	clrc
  2224     071C  0DA9               	rlf	___flmul@grs,f
  2225     071D  0DAA               	rlf	___flmul@grs+1,f
  2226     071E  0DAB               	rlf	___flmul@grs+2,f
  2227     071F  0DAC               	rlf	___flmul@grs+3,f
  2228     0720  0BF9               	decfsz	??___flmul,f
  2229     0721  2F1B               	goto	u2515
  2230     0722                     l1652:
  2231     0722  082E               	movf	___flmul@bexp,w
  2232     0723  072D               	addwf	___flmul@aexp,w
  2233     0724  00F9               	movwf	??___flmul
  2234     0725  01FA               	clrf	??___flmul+1
  2235     0726  0DFA               	rlf	??___flmul+1,f
  2236     0727  0879               	movf	??___flmul,w
  2237     0728  3E82               	addlw	130
  2238     0729  00B3               	movwf	___flmul@temp
  2239     072A  087A               	movf	??___flmul+1,w
  2240     072B  1803               	skipnc
  2241     072C  3E01               	addlw	1
  2242     072D  3EFF               	addlw	255
  2243     072E  00B4               	movwf	___flmul@temp+1
  2244     072F  2F4D               	goto	l1664
  2245     0730                     l1654:
  2246     0730  3001               	movlw	1
  2247     0731  00F9               	movwf	??___flmul
  2248     0732                     u2525:
  2249     0732  1003               	clrc
  2250     0733  0DAF               	rlf	___flmul@prod,f
  2251     0734  0DB0               	rlf	___flmul@prod+1,f
  2252     0735  0DB1               	rlf	___flmul@prod+2,f
  2253     0736  0DB2               	rlf	___flmul@prod+3,f
  2254     0737  0BF9               	decfsz	??___flmul,f
  2255     0738  2F32               	goto	u2525
  2256     0739                     l1656:
  2257     0739  1FAC               	btfss	___flmul@grs+3,7
  2258     073A  2F3C               	goto	u2531
  2259     073B  2F3D               	goto	u2530
  2260     073C                     u2531:
  2261     073C  2F3E               	goto	l1660
  2262     073D                     u2530:
  2263     073D                     l1658:
  2264     073D  142F               	bsf	___flmul@prod,0
  2265     073E                     l1660:
  2266     073E  3001               	movlw	1
  2267     073F  00F9               	movwf	??___flmul
  2268     0740                     u2545:
  2269     0740  1003               	clrc
  2270     0741  0DA9               	rlf	___flmul@grs,f
  2271     0742  0DAA               	rlf	___flmul@grs+1,f
  2272     0743  0DAB               	rlf	___flmul@grs+2,f
  2273     0744  0DAC               	rlf	___flmul@grs+3,f
  2274     0745  0BF9               	decfsz	??___flmul,f
  2275     0746  2F40               	goto	u2545
  2276     0747                     l1662:
  2277     0747  30FF               	movlw	255
  2278     0748  07B3               	addwf	___flmul@temp,f
  2279     0749  1803               	skipnc
  2280     074A  0AB4               	incf	___flmul@temp+1,f
  2281     074B  30FF               	movlw	255
  2282     074C  07B4               	addwf	___flmul@temp+1,f
  2283     074D                     l1664:
  2284     074D  1FB1               	btfss	___flmul@prod+2,7
  2285     074E  2F50               	goto	u2551
  2286     074F  2F51               	goto	u2550
  2287     0750                     u2551:
  2288     0750  2F30               	goto	l1654
  2289     0751                     u2550:
  2290     0751                     l1666:
  2291     0751  01AD               	clrf	___flmul@aexp
  2292     0752                     l1668:
  2293     0752  1FAC               	btfss	___flmul@grs+3,7
  2294     0753  2F55               	goto	u2561
  2295     0754  2F56               	goto	u2560
  2296     0755                     u2561:
  2297     0755  2F72               	goto	l1676
  2298     0756                     u2560:
  2299     0756                     l1670:
  2300     0756  30FF               	movlw	255
  2301     0757  0529               	andwf	___flmul@grs,w
  2302     0758  00F9               	movwf	??___flmul
  2303     0759  30FF               	movlw	255
  2304     075A  052A               	andwf	___flmul@grs+1,w
  2305     075B  00FA               	movwf	??___flmul+1
  2306     075C  30FF               	movlw	255
  2307     075D  052B               	andwf	___flmul@grs+2,w
  2308     075E  00FB               	movwf	??___flmul+2
  2309     075F  307F               	movlw	127
  2310     0760  052C               	andwf	___flmul@grs+3,w
  2311     0761  00FC               	movwf	??___flmul+3
  2312     0762  087C               	movf	??___flmul+3,w
  2313     0763  047B               	iorwf	??___flmul+2,w
  2314     0764  047A               	iorwf	??___flmul+1,w
  2315     0765  0479               	iorwf	??___flmul,w
  2316     0766  1903               	skipnz
  2317     0767  2F69               	goto	u2571
  2318     0768  2F6A               	goto	u2570
  2319     0769                     u2571:
  2320     0769  2F6D               	goto	l519
  2321     076A                     u2570:
  2322     076A                     l1672:
  2323     076A  3001               	movlw	1
  2324     076B  00AD               	movwf	___flmul@aexp
  2325     076C  2F72               	goto	l1676
  2326     076D                     l519:
  2327     076D  1C2F               	btfss	___flmul@prod,0
  2328     076E  2F70               	goto	u2581
  2329     076F  2F71               	goto	u2580
  2330     0770                     u2581:
  2331     0770  2F72               	goto	l1676
  2332     0771                     u2580:
  2333     0771  2F6A               	goto	l1672
  2334     0772                     l1676:
  2335     0772  082D               	movf	___flmul@aexp,w
  2336     0773  1903               	btfsc	3,2
  2337     0774  2F76               	goto	u2591
  2338     0775  2F77               	goto	u2590
  2339     0776                     u2591:
  2340     0776  2FA8               	goto	l1686
  2341     0777                     u2590:
  2342     0777                     l1678:
  2343     0777  3001               	movlw	1
  2344     0778  07AF               	addwf	___flmul@prod,f
  2345     0779  3000               	movlw	0
  2346     077A  1803               	skipnc
  2347     077B  3001               	movlw	1
  2348     077C  07B0               	addwf	___flmul@prod+1,f
  2349     077D  3000               	movlw	0
  2350     077E  1803               	skipnc
  2351     077F  3001               	movlw	1
  2352     0780  07B1               	addwf	___flmul@prod+2,f
  2353     0781  3000               	movlw	0
  2354     0782  1803               	skipnc
  2355     0783  3001               	movlw	1
  2356     0784  07B2               	addwf	___flmul@prod+3,f
  2357     0785                     l1680:
  2358     0785  1C32               	btfss	___flmul@prod+3,0
  2359     0786  2F88               	goto	u2601
  2360     0787  2F89               	goto	u2600
  2361     0788                     u2601:
  2362     0788  2FA8               	goto	l1686
  2363     0789                     u2600:
  2364     0789                     l1682:
  2365     0789  082F               	movf	___flmul@prod,w
  2366     078A  00F9               	movwf	??___flmul
  2367     078B  0830               	movf	___flmul@prod+1,w
  2368     078C  00FA               	movwf	??___flmul+1
  2369     078D  0831               	movf	___flmul@prod+2,w
  2370     078E  00FB               	movwf	??___flmul+2
  2371     078F  0832               	movf	___flmul@prod+3,w
  2372     0790  00FC               	movwf	??___flmul+3
  2373     0791  3001               	movlw	1
  2374     0792  00FD               	movwf	??___flmul+4
  2375     0793                     u2615:
  2376     0793  0D7C               	rlf	??___flmul+3,w
  2377     0794  0CFC               	rrf	??___flmul+3,f
  2378     0795  0CFB               	rrf	??___flmul+2,f
  2379     0796  0CFA               	rrf	??___flmul+1,f
  2380     0797  0CF9               	rrf	??___flmul,f
  2381     0798                     u2610:
  2382     0798  0BFD               	decfsz	??___flmul+4,f
  2383     0799  2F93               	goto	u2615
  2384     079A  087C               	movf	??___flmul+3,w
  2385     079B  00B2               	movwf	___flmul@prod+3
  2386     079C  087B               	movf	??___flmul+2,w
  2387     079D  00B1               	movwf	___flmul@prod+2
  2388     079E  087A               	movf	??___flmul+1,w
  2389     079F  00B0               	movwf	___flmul@prod+1
  2390     07A0  0879               	movf	??___flmul,w
  2391     07A1  00AF               	movwf	___flmul@prod
  2392     07A2                     l1684:
  2393     07A2  3001               	movlw	1
  2394     07A3  07B3               	addwf	___flmul@temp,f
  2395     07A4  1803               	skipnc
  2396     07A5  0AB4               	incf	___flmul@temp+1,f
  2397     07A6  3000               	movlw	0
  2398     07A7  07B4               	addwf	___flmul@temp+1,f
  2399     07A8                     l1686:
  2400     07A8  0834               	movf	___flmul@temp+1,w
  2401     07A9  3A80               	xorlw	128
  2402     07AA  00FF               	movwf	btemp+1
  2403     07AB  3080               	movlw	128
  2404     07AC  027F               	subwf	btemp+1,w
  2405     07AD  1D03               	skipz
  2406     07AE  2FB1               	goto	u2625
  2407     07AF  30FF               	movlw	255
  2408     07B0  0233               	subwf	___flmul@temp,w
  2409     07B1                     u2625:
  2410     07B1  1C03               	skipc
  2411     07B2  2FB4               	goto	u2621
  2412     07B3  2FB5               	goto	u2620
  2413     07B4                     u2621:
  2414     07B4  2FC0               	goto	l1690
  2415     07B5                     u2620:
  2416     07B5                     l1688:
  2417     07B5  307F               	movlw	127
  2418     07B6  1283               	bcf	3,5	;RP0=0, select bank0
  2419     07B7  1303               	bcf	3,6	;RP1=0, select bank0
  2420     07B8  00B2               	movwf	___flmul@prod+3
  2421     07B9  3080               	movlw	128
  2422     07BA  00B1               	movwf	___flmul@prod+2
  2423     07BB  3000               	movlw	0
  2424     07BC  00B0               	movwf	___flmul@prod+1
  2425     07BD  3000               	movlw	0
  2426     07BE  00AF               	movwf	___flmul@prod
  2427     07BF  2FF1               	goto	l525
  2428     07C0                     l1690:
  2429     07C0  1283               	bcf	3,5	;RP0=0, select bank0
  2430     07C1  1303               	bcf	3,6	;RP1=0, select bank0
  2431     07C2  0834               	movf	___flmul@temp+1,w
  2432     07C3  3A80               	xorlw	128
  2433     07C4  00FF               	movwf	btemp+1
  2434     07C5  3080               	movlw	128
  2435     07C6  027F               	subwf	btemp+1,w
  2436     07C7  1D03               	skipz
  2437     07C8  2FCB               	goto	u2635
  2438     07C9  3001               	movlw	1
  2439     07CA  0233               	subwf	___flmul@temp,w
  2440     07CB                     u2635:
  2441     07CB  1803               	skipnc
  2442     07CC  2FCE               	goto	u2631
  2443     07CD  2FCF               	goto	u2630
  2444     07CE                     u2631:
  2445     07CE  2FDB               	goto	l1696
  2446     07CF                     u2630:
  2447     07CF                     l1692:
  2448     07CF  3000               	movlw	0
  2449     07D0  1283               	bcf	3,5	;RP0=0, select bank0
  2450     07D1  1303               	bcf	3,6	;RP1=0, select bank0
  2451     07D2  00B2               	movwf	___flmul@prod+3
  2452     07D3  3000               	movlw	0
  2453     07D4  00B1               	movwf	___flmul@prod+2
  2454     07D5  3000               	movlw	0
  2455     07D6  00B0               	movwf	___flmul@prod+1
  2456     07D7  3000               	movlw	0
  2457     07D8  00AF               	movwf	___flmul@prod
  2458     07D9                     l1694:
  2459     07D9  01A8               	clrf	___flmul@sign
  2460     07DA  2FF1               	goto	l525
  2461     07DB                     l1696:
  2462     07DB  1283               	bcf	3,5	;RP0=0, select bank0
  2463     07DC  1303               	bcf	3,6	;RP1=0, select bank0
  2464     07DD  0833               	movf	___flmul@temp,w
  2465     07DE  00AE               	movwf	___flmul@bexp
  2466     07DF  30FF               	movlw	255
  2467     07E0  05AF               	andwf	___flmul@prod,f
  2468     07E1  30FF               	movlw	255
  2469     07E2  05B0               	andwf	___flmul@prod+1,f
  2470     07E3  307F               	movlw	127
  2471     07E4  05B1               	andwf	___flmul@prod+2,f
  2472     07E5  3000               	movlw	0
  2473     07E6  05B2               	andwf	___flmul@prod+3,f
  2474     07E7                     l1698:
  2475     07E7  1C2E               	btfss	___flmul@bexp,0
  2476     07E8  2FEA               	goto	u2641
  2477     07E9  2FEB               	goto	u2640
  2478     07EA                     u2641:
  2479     07EA  2FEC               	goto	l1702
  2480     07EB                     u2640:
  2481     07EB                     l1700:
  2482     07EB  17B1               	bsf	___flmul@prod+2,7
  2483     07EC                     l1702:
  2484     07EC  082E               	movf	___flmul@bexp,w
  2485     07ED  00F9               	movwf	??___flmul
  2486     07EE  1003               	clrc
  2487     07EF  0C79               	rrf	??___flmul,w
  2488     07F0  00B2               	movwf	___flmul@prod+3
  2489     07F1                     l525:
  2490     07F1  0828               	movf	___flmul@sign,w
  2491     07F2  04B2               	iorwf	___flmul@prod+3,f
  2492     07F3                     l1704:
  2493     07F3  0832               	movf	___flmul@prod+3,w
  2494     07F4  00A3               	movwf	?___flmul+3
  2495     07F5  0831               	movf	___flmul@prod+2,w
  2496     07F6  00A2               	movwf	?___flmul+2
  2497     07F7  0830               	movf	___flmul@prod+1,w
  2498     07F8  00A1               	movwf	?___flmul+1
  2499     07F9  082F               	movf	___flmul@prod,w
  2500     07FA  00A0               	movwf	?___flmul
  2501     07FB                     l513:
  2502     07FB  0008               	return
  2503     07FC                     __end_of___flmul:
  2504                           
  2505                           	psect	text6
  2506     0003                     __ptext6:	
  2507 ;; *************** function __Umul8_16 *****************
  2508 ;; Defined at:
  2509 ;;		line 4 in file "C:\Program Files\Microchip\xc8\v2.50\pic\sources\c99\common\Umul8_16.c"
  2510 ;; Parameters:    Size  Location     Type
  2511 ;;  multiplier      1    wreg     unsigned char 
  2512 ;;  multiplicand    1    0[COMMON] unsigned char 
  2513 ;; Auto vars:     Size  Location     Type
  2514 ;;  multiplier      1    8[COMMON] unsigned char 
  2515 ;;  word_mpld       2    6[COMMON] unsigned short 
  2516 ;;  product         2    4[COMMON] unsigned short 
  2517 ;; Return value:  Size  Location     Type
  2518 ;;                  2    0[COMMON] unsigned int 
  2519 ;; Registers used:
  2520 ;;		wreg, status,2, status,0
  2521 ;; Tracked objects:
  2522 ;;		On entry : 0/0
  2523 ;;		On exit  : 0/0
  2524 ;;		Unchanged: 0/0
  2525 ;; Data sizes:     COMMON   BANK0   BANK1   BANK3   BANK2
  2526 ;;      Params:         2       0       0       0       0
  2527 ;;      Locals:         5       0       0       0       0
  2528 ;;      Temps:          2       0       0       0       0
  2529 ;;      Totals:         9       0       0       0       0
  2530 ;;Total ram usage:        9 bytes
  2531 ;; Hardware stack levels used: 1
  2532 ;; This function calls:
  2533 ;;		Nothing
  2534 ;; This function is called by:
  2535 ;;		___flmul
  2536 ;; This function uses a non-reentrant model
  2537 ;;
  2538                           
  2539     0003                     __Umul8_16:	
  2540                           ;psect for function __Umul8_16
  2541                           
  2542                           
  2543                           ;incstack = 0
  2544                           ; Regs used in __Umul8_16: [wreg+status,2+status,0]
  2545                           ;__Umul8_16@multiplier stored from wreg
  2546     0003  00F8               	movwf	__Umul8_16@multiplier
  2547     0004                     l1174:
  2548     0004  01F4               	clrf	__Umul8_16@product
  2549     0005  01F5               	clrf	__Umul8_16@product+1
  2550     0006                     l1176:
  2551     0006  0870               	movf	__Umul8_16@multiplicand,w
  2552     0007  00F2               	movwf	??__Umul8_16
  2553     0008  01F3               	clrf	??__Umul8_16+1
  2554     0009  0872               	movf	??__Umul8_16,w
  2555     000A  00F6               	movwf	__Umul8_16@word_mpld
  2556     000B  0873               	movf	??__Umul8_16+1,w
  2557     000C  00F7               	movwf	__Umul8_16@word_mpld+1
  2558     000D                     l1178:
  2559     000D  1C78               	btfss	__Umul8_16@multiplier,0
  2560     000E  2810               	goto	u1401
  2561     000F  2811               	goto	u1400
  2562     0010                     u1401:
  2563     0010  2817               	goto	l532
  2564     0011                     u1400:
  2565     0011                     l1180:
  2566     0011  0876               	movf	__Umul8_16@word_mpld,w
  2567     0012  07F4               	addwf	__Umul8_16@product,f
  2568     0013  1803               	skipnc
  2569     0014  0AF5               	incf	__Umul8_16@product+1,f
  2570     0015  0877               	movf	__Umul8_16@word_mpld+1,w
  2571     0016  07F5               	addwf	__Umul8_16@product+1,f
  2572     0017                     l532:
  2573     0017  3001               	movlw	1
  2574     0018                     u1415:
  2575     0018  1003               	clrc
  2576     0019  0DF6               	rlf	__Umul8_16@word_mpld,f
  2577     001A  0DF7               	rlf	__Umul8_16@word_mpld+1,f
  2578     001B  3EFF               	addlw	-1
  2579     001C  1D03               	skipz
  2580     001D  2818               	goto	u1415
  2581     001E  1003               	clrc
  2582     001F  0CF8               	rrf	__Umul8_16@multiplier,f
  2583     0020                     l1182:
  2584     0020  0878               	movf	__Umul8_16@multiplier,w
  2585     0021  1D03               	btfss	3,2
  2586     0022  2824               	goto	u1421
  2587     0023  2825               	goto	u1420
  2588     0024                     u1421:
  2589     0024  280D               	goto	l1178
  2590     0025                     u1420:
  2591     0025                     l1184:
  2592     0025  0875               	movf	__Umul8_16@product+1,w
  2593     0026  00F1               	movwf	?__Umul8_16+1
  2594     0027  0874               	movf	__Umul8_16@product,w
  2595     0028  00F0               	movwf	?__Umul8_16
  2596     0029                     l534:
  2597     0029  0008               	return
  2598     002A                     __end_of__Umul8_16:
  2599                           
  2600                           	psect	text7
  2601     00A0                     __ptext7:	
  2602 ;; *************** function ___fldiv *****************
  2603 ;; Defined at:
  2604 ;;		line 8 in file "C:\Program Files\Microchip\xc8\v2.50\pic\sources\c99\common\sprcdiv.c"
  2605 ;; Parameters:    Size  Location     Type
  2606 ;;  a               4   21[BANK0 ] unsigned int 
  2607 ;;  b               4   25[BANK0 ] unsigned int 
  2608 ;; Auto vars:     Size  Location     Type
  2609 ;;  grs             4   41[BANK0 ] unsigned long 
  2610 ;;  rem             4   34[BANK0 ] unsigned long 
  2611 ;;  new_exp         2   39[BANK0 ] short 
  2612 ;;  aexp            1   46[BANK0 ] unsigned char 
  2613 ;;  bexp            1   45[BANK0 ] unsigned char 
  2614 ;;  sign            1   38[BANK0 ] unsigned char 
  2615 ;; Return value:  Size  Location     Type
  2616 ;;                  4   21[BANK0 ] unsigned char 
  2617 ;; Registers used:
  2618 ;;		wreg, status,2, status,0, btemp+1
  2619 ;; Tracked objects:
  2620 ;;		On entry : 0/0
  2621 ;;		On exit  : 0/0
  2622 ;;		Unchanged: 0/0
  2623 ;; Data sizes:     COMMON   BANK0   BANK1   BANK3   BANK2
  2624 ;;      Params:         0       8       0       0       0
  2625 ;;      Locals:         0      13       0       0       0
  2626 ;;      Temps:          0       5       0       0       0
  2627 ;;      Totals:         0      26       0       0       0
  2628 ;;Total ram usage:       26 bytes
  2629 ;; Hardware stack levels used: 1
  2630 ;; This function calls:
  2631 ;;		Nothing
  2632 ;; This function is called by:
  2633 ;;		_init_pwm
  2634 ;;		_set_duty_cycle_percent
  2635 ;; This function uses a non-reentrant model
  2636 ;;
  2637                           
  2638     00A0                     ___fldiv:	
  2639                           ;psect for function ___fldiv
  2640                           
  2641     00A0                     l1422:	
  2642                           ;incstack = 0
  2643                           ; Regs used in ___fldiv: [wreg+status,2+status,0+btemp+1]
  2644                           
  2645     00A0  1283               	bcf	3,5	;RP0=0, select bank0
  2646     00A1  1303               	bcf	3,6	;RP1=0, select bank0
  2647     00A2  083C               	movf	___fldiv@b+3,w
  2648     00A3  00C6               	movwf	___fldiv@sign
  2649     00A4                     l1424:
  2650     00A4  3080               	movlw	128
  2651     00A5  05C6               	andwf	___fldiv@sign,f
  2652     00A6                     l1426:
  2653     00A6  083C               	movf	___fldiv@b+3,w
  2654     00A7  00BD               	movwf	??___fldiv
  2655     00A8  073D               	addwf	??___fldiv,w
  2656     00A9  00CD               	movwf	___fldiv@bexp
  2657     00AA                     l1428:
  2658     00AA  1FBB               	btfss	___fldiv@b+2,7
  2659     00AB  28AD               	goto	u1991
  2660     00AC  28AE               	goto	u1990
  2661     00AD                     u1991:
  2662     00AD  28AF               	goto	l1432
  2663     00AE                     u1990:
  2664     00AE                     l1430:
  2665     00AE  144D               	bsf	___fldiv@bexp,0
  2666     00AF                     l1432:
  2667     00AF  084D               	movf	___fldiv@bexp,w
  2668     00B0  1903               	btfsc	3,2
  2669     00B1  28B3               	goto	u2001
  2670     00B2  28B4               	goto	u2000
  2671     00B3                     u2001:
  2672     00B3  28C4               	goto	l1442
  2673     00B4                     u2000:
  2674     00B4                     l1434:
  2675     00B4  0A4D               	incf	___fldiv@bexp,w
  2676     00B5  1D03               	btfss	3,2
  2677     00B6  28B8               	goto	u2011
  2678     00B7  28B9               	goto	u2010
  2679     00B8                     u2011:
  2680     00B8  28C1               	goto	l1438
  2681     00B9                     u2010:
  2682     00B9                     l1436:
  2683     00B9  3000               	movlw	0
  2684     00BA  00BC               	movwf	___fldiv@b+3
  2685     00BB  3000               	movlw	0
  2686     00BC  00BB               	movwf	___fldiv@b+2
  2687     00BD  3000               	movlw	0
  2688     00BE  00BA               	movwf	___fldiv@b+1
  2689     00BF  3000               	movlw	0
  2690     00C0  00B9               	movwf	___fldiv@b
  2691     00C1                     l1438:
  2692     00C1  17BB               	bsf	___fldiv@b+2,7
  2693     00C2                     l1440:
  2694     00C2  01BC               	clrf	___fldiv@b+3
  2695     00C3  28CC               	goto	l1444
  2696     00C4                     l1442:
  2697     00C4  3000               	movlw	0
  2698     00C5  00BC               	movwf	___fldiv@b+3
  2699     00C6  3000               	movlw	0
  2700     00C7  00BB               	movwf	___fldiv@b+2
  2701     00C8  3000               	movlw	0
  2702     00C9  00BA               	movwf	___fldiv@b+1
  2703     00CA  3000               	movlw	0
  2704     00CB  00B9               	movwf	___fldiv@b
  2705     00CC                     l1444:
  2706     00CC  0838               	movf	___fldiv@a+3,w
  2707     00CD  3980               	andlw	128
  2708     00CE  06C6               	xorwf	___fldiv@sign,f
  2709     00CF                     l1446:
  2710     00CF  0838               	movf	___fldiv@a+3,w
  2711     00D0  00BD               	movwf	??___fldiv
  2712     00D1  073D               	addwf	??___fldiv,w
  2713     00D2  00CE               	movwf	___fldiv@aexp
  2714     00D3                     l1448:
  2715     00D3  1FB7               	btfss	___fldiv@a+2,7
  2716     00D4  28D6               	goto	u2021
  2717     00D5  28D7               	goto	u2020
  2718     00D6                     u2021:
  2719     00D6  28D8               	goto	l1452
  2720     00D7                     u2020:
  2721     00D7                     l1450:
  2722     00D7  144E               	bsf	___fldiv@aexp,0
  2723     00D8                     l1452:
  2724     00D8  084E               	movf	___fldiv@aexp,w
  2725     00D9  1903               	btfsc	3,2
  2726     00DA  28DC               	goto	u2031
  2727     00DB  28DD               	goto	u2030
  2728     00DC                     u2031:
  2729     00DC  28ED               	goto	l1462
  2730     00DD                     u2030:
  2731     00DD                     l1454:
  2732     00DD  0A4E               	incf	___fldiv@aexp,w
  2733     00DE  1D03               	btfss	3,2
  2734     00DF  28E1               	goto	u2041
  2735     00E0  28E2               	goto	u2040
  2736     00E1                     u2041:
  2737     00E1  28EA               	goto	l1458
  2738     00E2                     u2040:
  2739     00E2                     l1456:
  2740     00E2  3000               	movlw	0
  2741     00E3  00B8               	movwf	___fldiv@a+3
  2742     00E4  3000               	movlw	0
  2743     00E5  00B7               	movwf	___fldiv@a+2
  2744     00E6  3000               	movlw	0
  2745     00E7  00B6               	movwf	___fldiv@a+1
  2746     00E8  3000               	movlw	0
  2747     00E9  00B5               	movwf	___fldiv@a
  2748     00EA                     l1458:
  2749     00EA  17B7               	bsf	___fldiv@a+2,7
  2750     00EB                     l1460:
  2751     00EB  01B8               	clrf	___fldiv@a+3
  2752     00EC  28F5               	goto	l473
  2753     00ED                     l1462:
  2754     00ED  3000               	movlw	0
  2755     00EE  00B8               	movwf	___fldiv@a+3
  2756     00EF  3000               	movlw	0
  2757     00F0  00B7               	movwf	___fldiv@a+2
  2758     00F1  3000               	movlw	0
  2759     00F2  00B6               	movwf	___fldiv@a+1
  2760     00F3  3000               	movlw	0
  2761     00F4  00B5               	movwf	___fldiv@a
  2762     00F5                     l473:
  2763     00F5  0838               	movf	___fldiv@a+3,w
  2764     00F6  0437               	iorwf	___fldiv@a+2,w
  2765     00F7  0436               	iorwf	___fldiv@a+1,w
  2766     00F8  0435               	iorwf	___fldiv@a,w
  2767     00F9  1D03               	skipz
  2768     00FA  28FC               	goto	u2051
  2769     00FB  28FD               	goto	u2050
  2770     00FC                     u2051:
  2771     00FC  2914               	goto	l1472
  2772     00FD                     u2050:
  2773     00FD                     l1464:
  2774     00FD  3000               	movlw	0
  2775     00FE  00BC               	movwf	___fldiv@b+3
  2776     00FF  3000               	movlw	0
  2777     0100  00BB               	movwf	___fldiv@b+2
  2778     0101  3000               	movlw	0
  2779     0102  00BA               	movwf	___fldiv@b+1
  2780     0103  3000               	movlw	0
  2781     0104  00B9               	movwf	___fldiv@b
  2782     0105  3080               	movlw	128
  2783     0106  04BB               	iorwf	___fldiv@b+2,f
  2784     0107  307F               	movlw	127
  2785     0108  04BC               	iorwf	___fldiv@b+3,f
  2786     0109                     l1466:
  2787     0109  0846               	movf	___fldiv@sign,w
  2788     010A  04BC               	iorwf	___fldiv@b+3,f
  2789     010B                     l1468:
  2790     010B  083C               	movf	___fldiv@b+3,w
  2791     010C  00B8               	movwf	?___fldiv+3
  2792     010D  083B               	movf	___fldiv@b+2,w
  2793     010E  00B7               	movwf	?___fldiv+2
  2794     010F  083A               	movf	___fldiv@b+1,w
  2795     0110  00B6               	movwf	?___fldiv+1
  2796     0111  0839               	movf	___fldiv@b,w
  2797     0112  00B5               	movwf	?___fldiv
  2798     0113  2A69               	goto	l475
  2799     0114                     l1472:
  2800     0114  084D               	movf	___fldiv@bexp,w
  2801     0115  1D03               	btfss	3,2
  2802     0116  2918               	goto	u2061
  2803     0117  2919               	goto	u2060
  2804     0118                     u2061:
  2805     0118  2922               	goto	l1478
  2806     0119                     u2060:
  2807     0119                     l1474:
  2808     0119  3000               	movlw	0
  2809     011A  00B8               	movwf	?___fldiv+3
  2810     011B  3000               	movlw	0
  2811     011C  00B7               	movwf	?___fldiv+2
  2812     011D  3000               	movlw	0
  2813     011E  00B6               	movwf	?___fldiv+1
  2814     011F  3000               	movlw	0
  2815     0120  00B5               	movwf	?___fldiv
  2816     0121  2A69               	goto	l475
  2817     0122                     l1478:
  2818     0122  084D               	movf	___fldiv@bexp,w
  2819     0123  00BD               	movwf	??___fldiv
  2820     0124  01BE               	clrf	??___fldiv+1
  2821     0125  083E               	movf	??___fldiv+1,w
  2822     0126  00C0               	movwf	??___fldiv+3
  2823     0127  084E               	movf	___fldiv@aexp,w
  2824     0128  023D               	subwf	??___fldiv,w
  2825     0129  00BF               	movwf	??___fldiv+2
  2826     012A  1C03               	skipc
  2827     012B  03C0               	decf	??___fldiv+3,f
  2828     012C  083F               	movf	??___fldiv+2,w
  2829     012D  3E7F               	addlw	127
  2830     012E  00C7               	movwf	___fldiv@new_exp
  2831     012F  0840               	movf	??___fldiv+3,w
  2832     0130  1803               	skipnc
  2833     0131  3E01               	addlw	1
  2834     0132  3E00               	addlw	0
  2835     0133  00C8               	movwf	___fldiv@new_exp+1
  2836     0134                     l1480:
  2837     0134  083C               	movf	___fldiv@b+3,w
  2838     0135  00C5               	movwf	___fldiv@rem+3
  2839     0136  083B               	movf	___fldiv@b+2,w
  2840     0137  00C4               	movwf	___fldiv@rem+2
  2841     0138  083A               	movf	___fldiv@b+1,w
  2842     0139  00C3               	movwf	___fldiv@rem+1
  2843     013A  0839               	movf	___fldiv@b,w
  2844     013B  00C2               	movwf	___fldiv@rem
  2845     013C                     l1482:
  2846     013C  3000               	movlw	0
  2847     013D  00BC               	movwf	___fldiv@b+3
  2848     013E  3000               	movlw	0
  2849     013F  00BB               	movwf	___fldiv@b+2
  2850     0140  3000               	movlw	0
  2851     0141  00BA               	movwf	___fldiv@b+1
  2852     0142  3000               	movlw	0
  2853     0143  00B9               	movwf	___fldiv@b
  2854     0144                     l1484:
  2855     0144  3000               	movlw	0
  2856     0145  00CC               	movwf	___fldiv@grs+3
  2857     0146  3000               	movlw	0
  2858     0147  00CB               	movwf	___fldiv@grs+2
  2859     0148  3000               	movlw	0
  2860     0149  00CA               	movwf	___fldiv@grs+1
  2861     014A  3000               	movlw	0
  2862     014B  00C9               	movwf	___fldiv@grs
  2863     014C                     l1486:
  2864     014C  01CE               	clrf	___fldiv@aexp
  2865     014D  2996               	goto	l1506
  2866     014E                     l1488:
  2867     014E  084E               	movf	___fldiv@aexp,w
  2868     014F  1903               	btfsc	3,2
  2869     0150  2952               	goto	u2071
  2870     0151  2953               	goto	u2070
  2871     0152                     u2071:
  2872     0152  2973               	goto	l1498
  2873     0153                     u2070:
  2874     0153                     l1490:
  2875     0153  3001               	movlw	1
  2876     0154  00BD               	movwf	??___fldiv
  2877     0155                     u2085:
  2878     0155  1003               	clrc
  2879     0156  0DC2               	rlf	___fldiv@rem,f
  2880     0157  0DC3               	rlf	___fldiv@rem+1,f
  2881     0158  0DC4               	rlf	___fldiv@rem+2,f
  2882     0159  0DC5               	rlf	___fldiv@rem+3,f
  2883     015A  0BBD               	decfsz	??___fldiv,f
  2884     015B  2955               	goto	u2085
  2885     015C  3001               	movlw	1
  2886     015D  00BD               	movwf	??___fldiv
  2887     015E                     u2095:
  2888     015E  1003               	clrc
  2889     015F  0DB9               	rlf	___fldiv@b,f
  2890     0160  0DBA               	rlf	___fldiv@b+1,f
  2891     0161  0DBB               	rlf	___fldiv@b+2,f
  2892     0162  0DBC               	rlf	___fldiv@b+3,f
  2893     0163  0BBD               	decfsz	??___fldiv,f
  2894     0164  295E               	goto	u2095
  2895     0165                     l1492:
  2896     0165  1FCC               	btfss	___fldiv@grs+3,7
  2897     0166  2968               	goto	u2101
  2898     0167  2969               	goto	u2100
  2899     0168                     u2101:
  2900     0168  296A               	goto	l1496
  2901     0169                     u2100:
  2902     0169                     l1494:
  2903     0169  1439               	bsf	___fldiv@b,0
  2904     016A                     l1496:
  2905     016A  3001               	movlw	1
  2906     016B  00BD               	movwf	??___fldiv
  2907     016C                     u2115:
  2908     016C  1003               	clrc
  2909     016D  0DC9               	rlf	___fldiv@grs,f
  2910     016E  0DCA               	rlf	___fldiv@grs+1,f
  2911     016F  0DCB               	rlf	___fldiv@grs+2,f
  2912     0170  0DCC               	rlf	___fldiv@grs+3,f
  2913     0171  0BBD               	decfsz	??___fldiv,f
  2914     0172  296C               	goto	u2115
  2915     0173                     l1498:
  2916     0173  0838               	movf	___fldiv@a+3,w
  2917     0174  0245               	subwf	___fldiv@rem+3,w
  2918     0175  1D03               	skipz
  2919     0176  2981               	goto	u2125
  2920     0177  0837               	movf	___fldiv@a+2,w
  2921     0178  0244               	subwf	___fldiv@rem+2,w
  2922     0179  1D03               	skipz
  2923     017A  2981               	goto	u2125
  2924     017B  0836               	movf	___fldiv@a+1,w
  2925     017C  0243               	subwf	___fldiv@rem+1,w
  2926     017D  1D03               	skipz
  2927     017E  2981               	goto	u2125
  2928     017F  0835               	movf	___fldiv@a,w
  2929     0180  0242               	subwf	___fldiv@rem,w
  2930     0181                     u2125:
  2931     0181  1C03               	skipc
  2932     0182  2984               	goto	u2121
  2933     0183  2985               	goto	u2120
  2934     0184                     u2121:
  2935     0184  2994               	goto	l1504
  2936     0185                     u2120:
  2937     0185                     l1500:
  2938     0185  174C               	bsf	___fldiv@grs+3,6
  2939     0186                     l1502:
  2940     0186  0835               	movf	___fldiv@a,w
  2941     0187  02C2               	subwf	___fldiv@rem,f
  2942     0188  0836               	movf	___fldiv@a+1,w
  2943     0189  1C03               	skipc
  2944     018A  0F36               	incfsz	___fldiv@a+1,w
  2945     018B  02C3               	subwf	___fldiv@rem+1,f
  2946     018C  0837               	movf	___fldiv@a+2,w
  2947     018D  1C03               	skipc
  2948     018E  0F37               	incfsz	___fldiv@a+2,w
  2949     018F  02C4               	subwf	___fldiv@rem+2,f
  2950     0190  0838               	movf	___fldiv@a+3,w
  2951     0191  1C03               	skipc
  2952     0192  0F38               	incfsz	___fldiv@a+3,w
  2953     0193  02C5               	subwf	___fldiv@rem+3,f
  2954     0194                     l1504:
  2955     0194  3001               	movlw	1
  2956     0195  07CE               	addwf	___fldiv@aexp,f
  2957     0196                     l1506:
  2958     0196  301A               	movlw	26
  2959     0197  024E               	subwf	___fldiv@aexp,w
  2960     0198  1C03               	skipc
  2961     0199  299B               	goto	u2131
  2962     019A  299C               	goto	u2130
  2963     019B                     u2131:
  2964     019B  294E               	goto	l1488
  2965     019C                     u2130:
  2966     019C                     l1508:
  2967     019C  0845               	movf	___fldiv@rem+3,w
  2968     019D  0444               	iorwf	___fldiv@rem+2,w
  2969     019E  0443               	iorwf	___fldiv@rem+1,w
  2970     019F  0442               	iorwf	___fldiv@rem,w
  2971     01A0  1903               	skipnz
  2972     01A1  29A3               	goto	u2141
  2973     01A2  29A4               	goto	u2140
  2974     01A3                     u2141:
  2975     01A3  29C3               	goto	l1522
  2976     01A4                     u2140:
  2977     01A4                     l1510:
  2978     01A4  1449               	bsf	___fldiv@grs,0
  2979     01A5  29C3               	goto	l1522
  2980     01A6                     l1512:
  2981     01A6  3001               	movlw	1
  2982     01A7  00BD               	movwf	??___fldiv
  2983     01A8                     u2155:
  2984     01A8  1003               	clrc
  2985     01A9  0DB9               	rlf	___fldiv@b,f
  2986     01AA  0DBA               	rlf	___fldiv@b+1,f
  2987     01AB  0DBB               	rlf	___fldiv@b+2,f
  2988     01AC  0DBC               	rlf	___fldiv@b+3,f
  2989     01AD  0BBD               	decfsz	??___fldiv,f
  2990     01AE  29A8               	goto	u2155
  2991     01AF                     l1514:
  2992     01AF  1FCC               	btfss	___fldiv@grs+3,7
  2993     01B0  29B2               	goto	u2161
  2994     01B1  29B3               	goto	u2160
  2995     01B2                     u2161:
  2996     01B2  29B4               	goto	l1518
  2997     01B3                     u2160:
  2998     01B3                     l1516:
  2999     01B3  1439               	bsf	___fldiv@b,0
  3000     01B4                     l1518:
  3001     01B4  3001               	movlw	1
  3002     01B5  00BD               	movwf	??___fldiv
  3003     01B6                     u2175:
  3004     01B6  1003               	clrc
  3005     01B7  0DC9               	rlf	___fldiv@grs,f
  3006     01B8  0DCA               	rlf	___fldiv@grs+1,f
  3007     01B9  0DCB               	rlf	___fldiv@grs+2,f
  3008     01BA  0DCC               	rlf	___fldiv@grs+3,f
  3009     01BB  0BBD               	decfsz	??___fldiv,f
  3010     01BC  29B6               	goto	u2175
  3011     01BD                     l1520:
  3012     01BD  30FF               	movlw	255
  3013     01BE  07C7               	addwf	___fldiv@new_exp,f
  3014     01BF  1803               	skipnc
  3015     01C0  0AC8               	incf	___fldiv@new_exp+1,f
  3016     01C1  30FF               	movlw	255
  3017     01C2  07C8               	addwf	___fldiv@new_exp+1,f
  3018     01C3                     l1522:
  3019     01C3  1FBB               	btfss	___fldiv@b+2,7
  3020     01C4  29C6               	goto	u2181
  3021     01C5  29C7               	goto	u2180
  3022     01C6                     u2181:
  3023     01C6  29A6               	goto	l1512
  3024     01C7                     u2180:
  3025     01C7                     l1524:
  3026     01C7  01CE               	clrf	___fldiv@aexp
  3027     01C8                     l1526:
  3028     01C8  1FCC               	btfss	___fldiv@grs+3,7
  3029     01C9  29CB               	goto	u2191
  3030     01CA  29CC               	goto	u2190
  3031     01CB                     u2191:
  3032     01CB  29E8               	goto	l1534
  3033     01CC                     u2190:
  3034     01CC                     l1528:
  3035     01CC  30FF               	movlw	255
  3036     01CD  0549               	andwf	___fldiv@grs,w
  3037     01CE  00BD               	movwf	??___fldiv
  3038     01CF  30FF               	movlw	255
  3039     01D0  054A               	andwf	___fldiv@grs+1,w
  3040     01D1  00BE               	movwf	??___fldiv+1
  3041     01D2  30FF               	movlw	255
  3042     01D3  054B               	andwf	___fldiv@grs+2,w
  3043     01D4  00BF               	movwf	??___fldiv+2
  3044     01D5  307F               	movlw	127
  3045     01D6  054C               	andwf	___fldiv@grs+3,w
  3046     01D7  00C0               	movwf	??___fldiv+3
  3047     01D8  0840               	movf	??___fldiv+3,w
  3048     01D9  043F               	iorwf	??___fldiv+2,w
  3049     01DA  043E               	iorwf	??___fldiv+1,w
  3050     01DB  043D               	iorwf	??___fldiv,w
  3051     01DC  1903               	skipnz
  3052     01DD  29DF               	goto	u2201
  3053     01DE  29E0               	goto	u2200
  3054     01DF                     u2201:
  3055     01DF  29E3               	goto	l489
  3056     01E0                     u2200:
  3057     01E0                     l1530:
  3058     01E0  3001               	movlw	1
  3059     01E1  00CE               	movwf	___fldiv@aexp
  3060     01E2  29E8               	goto	l1534
  3061     01E3                     l489:
  3062     01E3  1C39               	btfss	___fldiv@b,0
  3063     01E4  29E6               	goto	u2211
  3064     01E5  29E7               	goto	u2210
  3065     01E6                     u2211:
  3066     01E6  29E8               	goto	l1534
  3067     01E7                     u2210:
  3068     01E7  29E0               	goto	l1530
  3069     01E8                     l1534:
  3070     01E8  084E               	movf	___fldiv@aexp,w
  3071     01E9  1903               	btfsc	3,2
  3072     01EA  29EC               	goto	u2221
  3073     01EB  29ED               	goto	u2220
  3074     01EC                     u2221:
  3075     01EC  2A1E               	goto	l1544
  3076     01ED                     u2220:
  3077     01ED                     l1536:
  3078     01ED  3001               	movlw	1
  3079     01EE  07B9               	addwf	___fldiv@b,f
  3080     01EF  3000               	movlw	0
  3081     01F0  1803               	skipnc
  3082     01F1  3001               	movlw	1
  3083     01F2  07BA               	addwf	___fldiv@b+1,f
  3084     01F3  3000               	movlw	0
  3085     01F4  1803               	skipnc
  3086     01F5  3001               	movlw	1
  3087     01F6  07BB               	addwf	___fldiv@b+2,f
  3088     01F7  3000               	movlw	0
  3089     01F8  1803               	skipnc
  3090     01F9  3001               	movlw	1
  3091     01FA  07BC               	addwf	___fldiv@b+3,f
  3092     01FB                     l1538:
  3093     01FB  1C3C               	btfss	___fldiv@b+3,0
  3094     01FC  29FE               	goto	u2231
  3095     01FD  29FF               	goto	u2230
  3096     01FE                     u2231:
  3097     01FE  2A1E               	goto	l1544
  3098     01FF                     u2230:
  3099     01FF                     l1540:
  3100     01FF  0839               	movf	___fldiv@b,w
  3101     0200  00BD               	movwf	??___fldiv
  3102     0201  083A               	movf	___fldiv@b+1,w
  3103     0202  00BE               	movwf	??___fldiv+1
  3104     0203  083B               	movf	___fldiv@b+2,w
  3105     0204  00BF               	movwf	??___fldiv+2
  3106     0205  083C               	movf	___fldiv@b+3,w
  3107     0206  00C0               	movwf	??___fldiv+3
  3108     0207  3001               	movlw	1
  3109     0208  00C1               	movwf	??___fldiv+4
  3110     0209                     u2245:
  3111     0209  0D40               	rlf	??___fldiv+3,w
  3112     020A  0CC0               	rrf	??___fldiv+3,f
  3113     020B  0CBF               	rrf	??___fldiv+2,f
  3114     020C  0CBE               	rrf	??___fldiv+1,f
  3115     020D  0CBD               	rrf	??___fldiv,f
  3116     020E                     u2240:
  3117     020E  0BC1               	decfsz	??___fldiv+4,f
  3118     020F  2A09               	goto	u2245
  3119     0210  0840               	movf	??___fldiv+3,w
  3120     0211  00BC               	movwf	___fldiv@b+3
  3121     0212  083F               	movf	??___fldiv+2,w
  3122     0213  00BB               	movwf	___fldiv@b+2
  3123     0214  083E               	movf	??___fldiv+1,w
  3124     0215  00BA               	movwf	___fldiv@b+1
  3125     0216  083D               	movf	??___fldiv,w
  3126     0217  00B9               	movwf	___fldiv@b
  3127     0218                     l1542:
  3128     0218  3001               	movlw	1
  3129     0219  07C7               	addwf	___fldiv@new_exp,f
  3130     021A  1803               	skipnc
  3131     021B  0AC8               	incf	___fldiv@new_exp+1,f
  3132     021C  3000               	movlw	0
  3133     021D  07C8               	addwf	___fldiv@new_exp+1,f
  3134     021E                     l1544:
  3135     021E  0848               	movf	___fldiv@new_exp+1,w
  3136     021F  3A80               	xorlw	128
  3137     0220  00FF               	movwf	btemp+1
  3138     0221  3080               	movlw	128
  3139     0222  027F               	subwf	btemp+1,w
  3140     0223  1D03               	skipz
  3141     0224  2A27               	goto	u2255
  3142     0225  30FF               	movlw	255
  3143     0226  0247               	subwf	___fldiv@new_exp,w
  3144     0227                     u2255:
  3145     0227  1C03               	skipc
  3146     0228  2A2A               	goto	u2251
  3147     0229  2A2B               	goto	u2250
  3148     022A                     u2251:
  3149     022A  2A39               	goto	l1548
  3150     022B                     u2250:
  3151     022B                     l1546:
  3152     022B  30FF               	movlw	255
  3153     022C  1283               	bcf	3,5	;RP0=0, select bank0
  3154     022D  1303               	bcf	3,6	;RP1=0, select bank0
  3155     022E  00C7               	movwf	___fldiv@new_exp
  3156     022F  3000               	movlw	0
  3157     0230  00C8               	movwf	___fldiv@new_exp+1
  3158     0231  3000               	movlw	0
  3159     0232  00BC               	movwf	___fldiv@b+3
  3160     0233  3000               	movlw	0
  3161     0234  00BB               	movwf	___fldiv@b+2
  3162     0235  3000               	movlw	0
  3163     0236  00BA               	movwf	___fldiv@b+1
  3164     0237  3000               	movlw	0
  3165     0238  00B9               	movwf	___fldiv@b
  3166     0239                     l1548:
  3167     0239  1283               	bcf	3,5	;RP0=0, select bank0
  3168     023A  1303               	bcf	3,6	;RP1=0, select bank0
  3169     023B  0848               	movf	___fldiv@new_exp+1,w
  3170     023C  3A80               	xorlw	128
  3171     023D  00FF               	movwf	btemp+1
  3172     023E  3080               	movlw	128
  3173     023F  027F               	subwf	btemp+1,w
  3174     0240  1D03               	skipz
  3175     0241  2A44               	goto	u2265
  3176     0242  3001               	movlw	1
  3177     0243  0247               	subwf	___fldiv@new_exp,w
  3178     0244                     u2265:
  3179     0244  1803               	skipnc
  3180     0245  2A47               	goto	u2261
  3181     0246  2A48               	goto	u2260
  3182     0247                     u2261:
  3183     0247  2A55               	goto	l495
  3184     0248                     u2260:
  3185     0248                     l1550:
  3186     0248  1283               	bcf	3,5	;RP0=0, select bank0
  3187     0249  1303               	bcf	3,6	;RP1=0, select bank0
  3188     024A  01C7               	clrf	___fldiv@new_exp
  3189     024B  01C8               	clrf	___fldiv@new_exp+1
  3190     024C                     l1552:
  3191     024C  3000               	movlw	0
  3192     024D  00BC               	movwf	___fldiv@b+3
  3193     024E  3000               	movlw	0
  3194     024F  00BB               	movwf	___fldiv@b+2
  3195     0250  3000               	movlw	0
  3196     0251  00BA               	movwf	___fldiv@b+1
  3197     0252  3000               	movlw	0
  3198     0253  00B9               	movwf	___fldiv@b
  3199     0254                     l1554:
  3200     0254  01C6               	clrf	___fldiv@sign
  3201     0255                     l495:
  3202     0255  1283               	bcf	3,5	;RP0=0, select bank0
  3203     0256  1303               	bcf	3,6	;RP1=0, select bank0
  3204     0257  0847               	movf	___fldiv@new_exp,w
  3205     0258  00CD               	movwf	___fldiv@bexp
  3206     0259                     l1556:
  3207     0259  1C4D               	btfss	___fldiv@bexp,0
  3208     025A  2A5C               	goto	u2271
  3209     025B  2A5D               	goto	u2270
  3210     025C                     u2271:
  3211     025C  2A5F               	goto	l1560
  3212     025D                     u2270:
  3213     025D                     l1558:
  3214     025D  17BB               	bsf	___fldiv@b+2,7
  3215     025E  2A61               	goto	l497
  3216     025F                     l1560:
  3217     025F  307F               	movlw	127
  3218     0260  05BB               	andwf	___fldiv@b+2,f
  3219     0261                     l497:
  3220     0261  084D               	movf	___fldiv@bexp,w
  3221     0262  00BD               	movwf	??___fldiv
  3222     0263  1003               	clrc
  3223     0264  0C3D               	rrf	??___fldiv,w
  3224     0265  00BC               	movwf	___fldiv@b+3
  3225     0266  0846               	movf	___fldiv@sign,w
  3226     0267  04BC               	iorwf	___fldiv@b+3,f
  3227     0268  290B               	goto	l1468
  3228     0269                     l475:
  3229     0269  0008               	return
  3230     026A                     __end_of___fldiv:
  3231                           
  3232                           	psect	text8
  3233     026A                     __ptext8:	
  3234 ;; *************** function ___fladd *****************
  3235 ;; Defined at:
  3236 ;;		line 10 in file "C:\Program Files\Microchip\xc8\v2.50\pic\sources\c99\common\sprcadd.c"
  3237 ;; Parameters:    Size  Location     Type
  3238 ;;  b               4   47[BANK0 ] unsigned char 
  3239 ;;  a               4   51[BANK0 ] unsigned char 
  3240 ;; Auto vars:     Size  Location     Type
  3241 ;;  grs             1   66[BANK0 ] unsigned char 
  3242 ;;  bexp            1   65[BANK0 ] unsigned char 
  3243 ;;  aexp            1   64[BANK0 ] unsigned char 
  3244 ;;  signs           1   63[BANK0 ] unsigned char 
  3245 ;; Return value:  Size  Location     Type
  3246 ;;                  4   47[BANK0 ] unsigned char 
  3247 ;; Registers used:
  3248 ;;		wreg, status,2, status,0, btemp+1
  3249 ;; Tracked objects:
  3250 ;;		On entry : 0/0
  3251 ;;		On exit  : 0/0
  3252 ;;		Unchanged: 0/0
  3253 ;; Data sizes:     COMMON   BANK0   BANK1   BANK3   BANK2
  3254 ;;      Params:         0       8       0       0       0
  3255 ;;      Locals:         0       4       0       0       0
  3256 ;;      Temps:          0       8       0       0       0
  3257 ;;      Totals:         0      20       0       0       0
  3258 ;;Total ram usage:       20 bytes
  3259 ;; Hardware stack levels used: 1
  3260 ;; This function calls:
  3261 ;;		Nothing
  3262 ;; This function is called by:
  3263 ;;		_init_pwm
  3264 ;; This function uses a non-reentrant model
  3265 ;;
  3266                           
  3267     026A                     ___fladd:	
  3268                           ;psect for function ___fladd
  3269                           
  3270     026A                     l1224:	
  3271                           ;incstack = 0
  3272                           ; Regs used in ___fladd: [wreg+status,2+status,0+btemp+1]
  3273                           
  3274     026A  1283               	bcf	3,5	;RP0=0, select bank0
  3275     026B  1303               	bcf	3,6	;RP1=0, select bank0
  3276     026C  0852               	movf	___fladd@b+3,w
  3277     026D  00DF               	movwf	___fladd@signs
  3278     026E                     l1226:
  3279     026E  3080               	movlw	128
  3280     026F  05DF               	andwf	___fladd@signs,f
  3281     0270                     l1228:
  3282     0270  0852               	movf	___fladd@b+3,w
  3283     0271  00D7               	movwf	??___fladd
  3284     0272  0757               	addwf	??___fladd,w
  3285     0273  00E1               	movwf	___fladd@bexp
  3286     0274                     l1230:
  3287     0274  1FD1               	btfss	___fladd@b+2,7
  3288     0275  2A77               	goto	u1531
  3289     0276  2A78               	goto	u1530
  3290     0277                     u1531:
  3291     0277  2A79               	goto	l1234
  3292     0278                     u1530:
  3293     0278                     l1232:
  3294     0278  1461               	bsf	___fladd@bexp,0
  3295     0279                     l1234:
  3296     0279  0861               	movf	___fladd@bexp,w
  3297     027A  1903               	btfsc	3,2
  3298     027B  2A7D               	goto	u1541
  3299     027C  2A7E               	goto	u1540
  3300     027D                     u1541:
  3301     027D  2A8E               	goto	l1244
  3302     027E                     u1540:
  3303     027E                     l1236:
  3304     027E  0A61               	incf	___fladd@bexp,w
  3305     027F  1D03               	btfss	3,2
  3306     0280  2A82               	goto	u1551
  3307     0281  2A83               	goto	u1550
  3308     0282                     u1551:
  3309     0282  2A8B               	goto	l1240
  3310     0283                     u1550:
  3311     0283                     l1238:
  3312     0283  3000               	movlw	0
  3313     0284  00D2               	movwf	___fladd@b+3
  3314     0285  3000               	movlw	0
  3315     0286  00D1               	movwf	___fladd@b+2
  3316     0287  3000               	movlw	0
  3317     0288  00D0               	movwf	___fladd@b+1
  3318     0289  3000               	movlw	0
  3319     028A  00CF               	movwf	___fladd@b
  3320     028B                     l1240:
  3321     028B  17D1               	bsf	___fladd@b+2,7
  3322     028C                     l1242:
  3323     028C  01D2               	clrf	___fladd@b+3
  3324     028D  2A96               	goto	l412
  3325     028E                     l1244:
  3326     028E  3000               	movlw	0
  3327     028F  00D2               	movwf	___fladd@b+3
  3328     0290  3000               	movlw	0
  3329     0291  00D1               	movwf	___fladd@b+2
  3330     0292  3000               	movlw	0
  3331     0293  00D0               	movwf	___fladd@b+1
  3332     0294  3000               	movlw	0
  3333     0295  00CF               	movwf	___fladd@b
  3334     0296                     l412:
  3335     0296  0856               	movf	___fladd@a+3,w
  3336     0297  00E0               	movwf	___fladd@aexp
  3337     0298                     l1246:
  3338     0298  3080               	movlw	128
  3339     0299  05E0               	andwf	___fladd@aexp,f
  3340     029A                     l1248:
  3341     029A  0860               	movf	___fladd@aexp,w
  3342     029B  065F               	xorwf	___fladd@signs,w
  3343     029C  1903               	skipnz
  3344     029D  2A9F               	goto	u1561
  3345     029E  2AA0               	goto	u1560
  3346     029F                     u1561:
  3347     029F  2AA1               	goto	l1252
  3348     02A0                     u1560:
  3349     02A0                     l1250:
  3350     02A0  175F               	bsf	___fladd@signs,6
  3351     02A1                     l1252:
  3352     02A1  0856               	movf	___fladd@a+3,w
  3353     02A2  00D7               	movwf	??___fladd
  3354     02A3  0757               	addwf	??___fladd,w
  3355     02A4  00E0               	movwf	___fladd@aexp
  3356     02A5                     l1254:
  3357     02A5  1FD5               	btfss	___fladd@a+2,7
  3358     02A6  2AA8               	goto	u1571
  3359     02A7  2AA9               	goto	u1570
  3360     02A8                     u1571:
  3361     02A8  2AAA               	goto	l1258
  3362     02A9                     u1570:
  3363     02A9                     l1256:
  3364     02A9  1460               	bsf	___fladd@aexp,0
  3365     02AA                     l1258:
  3366     02AA  0860               	movf	___fladd@aexp,w
  3367     02AB  1903               	btfsc	3,2
  3368     02AC  2AAE               	goto	u1581
  3369     02AD  2AAF               	goto	u1580
  3370     02AE                     u1581:
  3371     02AE  2ABF               	goto	l1268
  3372     02AF                     u1580:
  3373     02AF                     l1260:
  3374     02AF  0A60               	incf	___fladd@aexp,w
  3375     02B0  1D03               	btfss	3,2
  3376     02B1  2AB3               	goto	u1591
  3377     02B2  2AB4               	goto	u1590
  3378     02B3                     u1591:
  3379     02B3  2ABC               	goto	l1264
  3380     02B4                     u1590:
  3381     02B4                     l1262:
  3382     02B4  3000               	movlw	0
  3383     02B5  00D6               	movwf	___fladd@a+3
  3384     02B6  3000               	movlw	0
  3385     02B7  00D5               	movwf	___fladd@a+2
  3386     02B8  3000               	movlw	0
  3387     02B9  00D4               	movwf	___fladd@a+1
  3388     02BA  3000               	movlw	0
  3389     02BB  00D3               	movwf	___fladd@a
  3390     02BC                     l1264:
  3391     02BC  17D5               	bsf	___fladd@a+2,7
  3392     02BD                     l1266:
  3393     02BD  01D6               	clrf	___fladd@a+3
  3394     02BE  2AC7               	goto	l417
  3395     02BF                     l1268:
  3396     02BF  3000               	movlw	0
  3397     02C0  00D6               	movwf	___fladd@a+3
  3398     02C1  3000               	movlw	0
  3399     02C2  00D5               	movwf	___fladd@a+2
  3400     02C3  3000               	movlw	0
  3401     02C4  00D4               	movwf	___fladd@a+1
  3402     02C5  3000               	movlw	0
  3403     02C6  00D3               	movwf	___fladd@a
  3404     02C7                     l417:
  3405     02C7  0861               	movf	___fladd@bexp,w
  3406     02C8  0260               	subwf	___fladd@aexp,w
  3407     02C9  1803               	skipnc
  3408     02CA  2ACC               	goto	u1601
  3409     02CB  2ACD               	goto	u1600
  3410     02CC                     u1601:
  3411     02CC  2AF1               	goto	l1304
  3412     02CD                     u1600:
  3413     02CD                     l1270:
  3414     02CD  1F5F               	btfss	___fladd@signs,6
  3415     02CE  2AD0               	goto	u1611
  3416     02CF  2AD1               	goto	u1610
  3417     02D0                     u1611:
  3418     02D0  2AD3               	goto	l1274
  3419     02D1                     u1610:
  3420     02D1                     l1272:
  3421     02D1  3080               	movlw	128
  3422     02D2  06DF               	xorwf	___fladd@signs,f
  3423     02D3                     l1274:
  3424     02D3  0861               	movf	___fladd@bexp,w
  3425     02D4  00E2               	movwf	___fladd@grs
  3426     02D5                     l1276:
  3427     02D5  0860               	movf	___fladd@aexp,w
  3428     02D6  00E1               	movwf	___fladd@bexp
  3429     02D7                     l1278:
  3430     02D7  0862               	movf	___fladd@grs,w
  3431     02D8  00E0               	movwf	___fladd@aexp
  3432     02D9                     l1280:
  3433     02D9  084F               	movf	___fladd@b,w
  3434     02DA  00E2               	movwf	___fladd@grs
  3435     02DB                     l1282:
  3436     02DB  0853               	movf	___fladd@a,w
  3437     02DC  00CF               	movwf	___fladd@b
  3438     02DD                     l1284:
  3439     02DD  0862               	movf	___fladd@grs,w
  3440     02DE  00D3               	movwf	___fladd@a
  3441     02DF                     l1286:
  3442     02DF  0850               	movf	___fladd@b+1,w
  3443     02E0  00E2               	movwf	___fladd@grs
  3444     02E1                     l1288:
  3445     02E1  0854               	movf	___fladd@a+1,w
  3446     02E2  00D0               	movwf	___fladd@b+1
  3447     02E3                     l1290:
  3448     02E3  0862               	movf	___fladd@grs,w
  3449     02E4  00D4               	movwf	___fladd@a+1
  3450     02E5                     l1292:
  3451     02E5  0851               	movf	___fladd@b+2,w
  3452     02E6  00E2               	movwf	___fladd@grs
  3453     02E7                     l1294:
  3454     02E7  0855               	movf	___fladd@a+2,w
  3455     02E8  00D1               	movwf	___fladd@b+2
  3456     02E9                     l1296:
  3457     02E9  0862               	movf	___fladd@grs,w
  3458     02EA  00D5               	movwf	___fladd@a+2
  3459     02EB                     l1298:
  3460     02EB  0852               	movf	___fladd@b+3,w
  3461     02EC  00E2               	movwf	___fladd@grs
  3462     02ED                     l1300:
  3463     02ED  0856               	movf	___fladd@a+3,w
  3464     02EE  00D2               	movwf	___fladd@b+3
  3465     02EF                     l1302:
  3466     02EF  0862               	movf	___fladd@grs,w
  3467     02F0  00D6               	movwf	___fladd@a+3
  3468     02F1                     l1304:
  3469     02F1  01E2               	clrf	___fladd@grs
  3470     02F2                     l1306:
  3471     02F2  0860               	movf	___fladd@aexp,w
  3472     02F3  00D7               	movwf	??___fladd
  3473     02F4  01D8               	clrf	??___fladd+1
  3474     02F5  0858               	movf	??___fladd+1,w
  3475     02F6  00DA               	movwf	??___fladd+3
  3476     02F7  0861               	movf	___fladd@bexp,w
  3477     02F8  0257               	subwf	??___fladd,w
  3478     02F9  00D9               	movwf	??___fladd+2
  3479     02FA  1C03               	skipc
  3480     02FB  03DA               	decf	??___fladd+3,f
  3481     02FC  085A               	movf	??___fladd+3,w
  3482     02FD  3A80               	xorlw	128
  3483     02FE  00FF               	movwf	btemp+1
  3484     02FF  3080               	movlw	128
  3485     0300  027F               	subwf	btemp+1,w
  3486     0301  1D03               	skipz
  3487     0302  2B05               	goto	u1625
  3488     0303  301A               	movlw	26
  3489     0304  0259               	subwf	??___fladd+2,w
  3490     0305                     u1625:
  3491     0305  1C03               	skipc
  3492     0306  2B08               	goto	u1621
  3493     0307  2B09               	goto	u1620
  3494     0308                     u1621:
  3495     0308  2B3E               	goto	l1322
  3496     0309                     u1620:
  3497     0309                     l1308:
  3498     0309  1283               	bcf	3,5	;RP0=0, select bank0
  3499     030A  1303               	bcf	3,6	;RP1=0, select bank0
  3500     030B  0852               	movf	___fladd@b+3,w
  3501     030C  0451               	iorwf	___fladd@b+2,w
  3502     030D  0450               	iorwf	___fladd@b+1,w
  3503     030E  044F               	iorwf	___fladd@b,w
  3504     030F  1D03               	skipz
  3505     0310  2B12               	goto	u1631
  3506     0311  2B14               	goto	u1630
  3507     0312                     u1631:
  3508     0312  3001               	movlw	1
  3509     0313  2B15               	goto	u1640
  3510     0314                     u1630:
  3511     0314  3000               	movlw	0
  3512     0315                     u1640:
  3513     0315  00E2               	movwf	___fladd@grs
  3514     0316  3000               	movlw	0
  3515     0317  00D2               	movwf	___fladd@b+3
  3516     0318  3000               	movlw	0
  3517     0319  00D1               	movwf	___fladd@b+2
  3518     031A  3000               	movlw	0
  3519     031B  00D0               	movwf	___fladd@b+1
  3520     031C  3000               	movlw	0
  3521     031D  00CF               	movwf	___fladd@b
  3522     031E  0860               	movf	___fladd@aexp,w
  3523     031F  00E1               	movwf	___fladd@bexp
  3524     0320  2B46               	goto	l421
  3525     0321                     l423:
  3526     0321  1C62               	btfss	___fladd@grs,0
  3527     0322  2B24               	goto	u1651
  3528     0323  2B25               	goto	u1650
  3529     0324                     u1651:
  3530     0324  2B2C               	goto	l1312
  3531     0325                     u1650:
  3532     0325                     l1310:
  3533     0325  0862               	movf	___fladd@grs,w
  3534     0326  00D7               	movwf	??___fladd
  3535     0327  1003               	clrc
  3536     0328  0C57               	rrf	??___fladd,w
  3537     0329  3801               	iorlw	1
  3538     032A  00E2               	movwf	___fladd@grs
  3539     032B  2B2E               	goto	l1314
  3540     032C                     l1312:
  3541     032C  1003               	clrc
  3542     032D  0CE2               	rrf	___fladd@grs,f
  3543     032E                     l1314:
  3544     032E  1C4F               	btfss	___fladd@b,0
  3545     032F  2B31               	goto	u1661
  3546     0330  2B32               	goto	u1660
  3547     0331                     u1661:
  3548     0331  2B33               	goto	l1318
  3549     0332                     u1660:
  3550     0332                     l1316:
  3551     0332  17E2               	bsf	___fladd@grs,7
  3552     0333                     l1318:
  3553     0333  3001               	movlw	1
  3554     0334  00D7               	movwf	??___fladd
  3555     0335                     u1675:
  3556     0335  0D52               	rlf	___fladd@b+3,w
  3557     0336  0CD2               	rrf	___fladd@b+3,f
  3558     0337  0CD1               	rrf	___fladd@b+2,f
  3559     0338  0CD0               	rrf	___fladd@b+1,f
  3560     0339  0CCF               	rrf	___fladd@b,f
  3561     033A  0BD7               	decfsz	??___fladd& (0+127),f
  3562     033B  2B35               	goto	u1675
  3563     033C                     l1320:
  3564     033C  3001               	movlw	1
  3565     033D  07E1               	addwf	___fladd@bexp,f
  3566     033E                     l1322:
  3567     033E  1283               	bcf	3,5	;RP0=0, select bank0
  3568     033F  1303               	bcf	3,6	;RP1=0, select bank0
  3569     0340  0860               	movf	___fladd@aexp,w
  3570     0341  0261               	subwf	___fladd@bexp,w
  3571     0342  1C03               	skipc
  3572     0343  2B45               	goto	u1681
  3573     0344  2B46               	goto	u1680
  3574     0345                     u1681:
  3575     0345  2B21               	goto	l423
  3576     0346                     u1680:
  3577     0346                     l421:
  3578     0346  1B5F               	btfsc	___fladd@signs,6
  3579     0347  2B49               	goto	u1691
  3580     0348  2B4A               	goto	u1690
  3581     0349                     u1691:
  3582     0349  2B91               	goto	l1348
  3583     034A                     u1690:
  3584     034A                     l1324:
  3585     034A  0861               	movf	___fladd@bexp,w
  3586     034B  1D03               	btfss	3,2
  3587     034C  2B4E               	goto	u1701
  3588     034D  2B4F               	goto	u1700
  3589     034E                     u1701:
  3590     034E  2B58               	goto	l1330
  3591     034F                     u1700:
  3592     034F                     l1326:
  3593     034F  3000               	movlw	0
  3594     0350  00D2               	movwf	?___fladd+3
  3595     0351  3000               	movlw	0
  3596     0352  00D1               	movwf	?___fladd+2
  3597     0353  3000               	movlw	0
  3598     0354  00D0               	movwf	?___fladd+1
  3599     0355  3000               	movlw	0
  3600     0356  00CF               	movwf	?___fladd
  3601     0357  2CB9               	goto	l430
  3602     0358                     l1330:
  3603     0358  0853               	movf	___fladd@a,w
  3604     0359  07CF               	addwf	___fladd@b,f
  3605     035A  0854               	movf	___fladd@a+1,w
  3606     035B  1103               	clrz
  3607     035C  1803               	skipnc
  3608     035D  3E01               	addlw	1
  3609     035E  1903               	skipnz
  3610     035F  2B61               	goto	u1711
  3611     0360  07D0               	addwf	___fladd@b+1,f
  3612     0361                     u1711:
  3613     0361  0855               	movf	___fladd@a+2,w
  3614     0362  1103               	clrz
  3615     0363  1803               	skipnc
  3616     0364  3E01               	addlw	1
  3617     0365  1903               	skipnz
  3618     0366  2B68               	goto	u1712
  3619     0367  07D1               	addwf	___fladd@b+2,f
  3620     0368                     u1712:
  3621     0368  0856               	movf	___fladd@a+3,w
  3622     0369  1103               	clrz
  3623     036A  1803               	skipnc
  3624     036B  3E01               	addlw	1
  3625     036C  1903               	skipnz
  3626     036D  2B6F               	goto	u1713
  3627     036E  07D2               	addwf	___fladd@b+3,f
  3628     036F                     u1713:
  3629     036F                     l1332:
  3630     036F  1C52               	btfss	___fladd@b+3,0
  3631     0370  2B72               	goto	u1721
  3632     0371  2B73               	goto	u1720
  3633     0372                     u1721:
  3634     0372  2C45               	goto	l1384
  3635     0373                     u1720:
  3636     0373                     l1334:
  3637     0373  1C62               	btfss	___fladd@grs,0
  3638     0374  2B76               	goto	u1731
  3639     0375  2B77               	goto	u1730
  3640     0376                     u1731:
  3641     0376  2B7E               	goto	l1338
  3642     0377                     u1730:
  3643     0377                     l1336:
  3644     0377  0862               	movf	___fladd@grs,w
  3645     0378  00D7               	movwf	??___fladd
  3646     0379  1003               	clrc
  3647     037A  0C57               	rrf	??___fladd,w
  3648     037B  3801               	iorlw	1
  3649     037C  00E2               	movwf	___fladd@grs
  3650     037D  2B80               	goto	l1340
  3651     037E                     l1338:
  3652     037E  1003               	clrc
  3653     037F  0CE2               	rrf	___fladd@grs,f
  3654     0380                     l1340:
  3655     0380  1C4F               	btfss	___fladd@b,0
  3656     0381  2B83               	goto	u1741
  3657     0382  2B84               	goto	u1740
  3658     0383                     u1741:
  3659     0383  2B85               	goto	l1344
  3660     0384                     u1740:
  3661     0384                     l1342:
  3662     0384  17E2               	bsf	___fladd@grs,7
  3663     0385                     l1344:
  3664     0385  3001               	movlw	1
  3665     0386  00D7               	movwf	??___fladd
  3666     0387                     u1755:
  3667     0387  0D52               	rlf	___fladd@b+3,w
  3668     0388  0CD2               	rrf	___fladd@b+3,f
  3669     0389  0CD1               	rrf	___fladd@b+2,f
  3670     038A  0CD0               	rrf	___fladd@b+1,f
  3671     038B  0CCF               	rrf	___fladd@b,f
  3672     038C  0BD7               	decfsz	??___fladd& (0+127),f
  3673     038D  2B87               	goto	u1755
  3674     038E                     l1346:
  3675     038E  3001               	movlw	1
  3676     038F  07E1               	addwf	___fladd@bexp,f
  3677     0390  2C45               	goto	l1384
  3678     0391                     l1348:
  3679     0391  0852               	movf	___fladd@b+3,w
  3680     0392  3A80               	xorlw	128
  3681     0393  00FF               	movwf	btemp+1
  3682     0394  0856               	movf	___fladd@a+3,w
  3683     0395  3A80               	xorlw	128
  3684     0396  027F               	subwf	btemp+1,w
  3685     0397  1D03               	skipz
  3686     0398  2BA3               	goto	u1763
  3687     0399  0855               	movf	___fladd@a+2,w
  3688     039A  0251               	subwf	___fladd@b+2,w
  3689     039B  1D03               	skipz
  3690     039C  2BA3               	goto	u1763
  3691     039D  0854               	movf	___fladd@a+1,w
  3692     039E  0250               	subwf	___fladd@b+1,w
  3693     039F  1D03               	skipz
  3694     03A0  2BA3               	goto	u1763
  3695     03A1  0853               	movf	___fladd@a,w
  3696     03A2  024F               	subwf	___fladd@b,w
  3697     03A3                     u1763:
  3698     03A3  1803               	skipnc
  3699     03A4  2BA6               	goto	u1761
  3700     03A5  2BA7               	goto	u1760
  3701     03A6                     u1761:
  3702     03A6  2BFE               	goto	l1360
  3703     03A7                     u1760:
  3704     03A7                     l1350:
  3705     03A7  30FF               	movlw	255
  3706     03A8  00D7               	movwf	??___fladd
  3707     03A9  30FF               	movlw	255
  3708     03AA  00D8               	movwf	??___fladd+1
  3709     03AB  30FF               	movlw	255
  3710     03AC  00D9               	movwf	??___fladd+2
  3711     03AD  30FF               	movlw	255
  3712     03AE  00DA               	movwf	??___fladd+3
  3713     03AF  0853               	movf	___fladd@a,w
  3714     03B0  00DB               	movwf	??___fladd+4
  3715     03B1  0854               	movf	___fladd@a+1,w
  3716     03B2  00DC               	movwf	??___fladd+5
  3717     03B3  0855               	movf	___fladd@a+2,w
  3718     03B4  00DD               	movwf	??___fladd+6
  3719     03B5  0856               	movf	___fladd@a+3,w
  3720     03B6  00DE               	movwf	??___fladd+7
  3721     03B7  084F               	movf	___fladd@b,w
  3722     03B8  02DB               	subwf	??___fladd+4,f
  3723     03B9  0850               	movf	___fladd@b+1,w
  3724     03BA  1C03               	skipc
  3725     03BB  0F50               	incfsz	___fladd@b+1,w
  3726     03BC  2BBE               	goto	u1771
  3727     03BD  2BBF               	goto	u1772
  3728     03BE                     u1771:
  3729     03BE  02DC               	subwf	??___fladd+5,f
  3730     03BF                     u1772:
  3731     03BF  0851               	movf	___fladd@b+2,w
  3732     03C0  1C03               	skipc
  3733     03C1  0F51               	incfsz	___fladd@b+2,w
  3734     03C2  2BC4               	goto	u1773
  3735     03C3  2BC5               	goto	u1774
  3736     03C4                     u1773:
  3737     03C4  02DD               	subwf	??___fladd+6,f
  3738     03C5                     u1774:
  3739     03C5  0852               	movf	___fladd@b+3,w
  3740     03C6  1C03               	skipc
  3741     03C7  0F52               	incfsz	___fladd@b+3,w
  3742     03C8  2BCA               	goto	u1775
  3743     03C9  2BCB               	goto	u1776
  3744     03CA                     u1775:
  3745     03CA  02DE               	subwf	??___fladd+7,f
  3746     03CB                     u1776:
  3747     03CB  085B               	movf	??___fladd+4,w
  3748     03CC  07D7               	addwf	??___fladd,f
  3749     03CD  085C               	movf	??___fladd+5,w
  3750     03CE  1803               	skipnc
  3751     03CF  0F5C               	incfsz	??___fladd+5,w
  3752     03D0  2BD2               	goto	u1780
  3753     03D1  2BD3               	goto	u1781
  3754     03D2                     u1780:
  3755     03D2  07D8               	addwf	??___fladd+1,f
  3756     03D3                     u1781:
  3757     03D3  085D               	movf	??___fladd+6,w
  3758     03D4  1803               	skipnc
  3759     03D5  0F5D               	incfsz	??___fladd+6,w
  3760     03D6  2BD8               	goto	u1782
  3761     03D7  2BD9               	goto	u1783
  3762     03D8                     u1782:
  3763     03D8  07D9               	addwf	??___fladd+2,f
  3764     03D9                     u1783:
  3765     03D9  085E               	movf	??___fladd+7,w
  3766     03DA  1803               	skipnc
  3767     03DB  0A5E               	incf	??___fladd+7,w
  3768     03DC  07DA               	addwf	??___fladd+3,f
  3769     03DD  085A               	movf	??___fladd+3,w
  3770     03DE  00D2               	movwf	___fladd@b+3
  3771     03DF  0859               	movf	??___fladd+2,w
  3772     03E0  00D1               	movwf	___fladd@b+2
  3773     03E1  0858               	movf	??___fladd+1,w
  3774     03E2  00D0               	movwf	___fladd@b+1
  3775     03E3  0857               	movf	??___fladd,w
  3776     03E4  00CF               	movwf	___fladd@b
  3777     03E5                     l1352:
  3778     03E5  3080               	movlw	128
  3779     03E6  06DF               	xorwf	___fladd@signs,f
  3780     03E7                     l1354:
  3781     03E7  0362               	decf	___fladd@grs,w
  3782     03E8  3AFF               	xorlw	255
  3783     03E9  00E2               	movwf	___fladd@grs
  3784     03EA                     l1356:
  3785     03EA  0862               	movf	___fladd@grs,w
  3786     03EB  1D03               	btfss	3,2
  3787     03EC  2BEE               	goto	u1791
  3788     03ED  2BEF               	goto	u1790
  3789     03EE                     u1791:
  3790     03EE  2C0C               	goto	l438
  3791     03EF                     u1790:
  3792     03EF                     l1358:
  3793     03EF  3001               	movlw	1
  3794     03F0  07CF               	addwf	___fladd@b,f
  3795     03F1  3000               	movlw	0
  3796     03F2  1803               	skipnc
  3797     03F3  3001               	movlw	1
  3798     03F4  07D0               	addwf	___fladd@b+1,f
  3799     03F5  3000               	movlw	0
  3800     03F6  1803               	skipnc
  3801     03F7  3001               	movlw	1
  3802     03F8  07D1               	addwf	___fladd@b+2,f
  3803     03F9  3000               	movlw	0
  3804     03FA  1803               	skipnc
  3805     03FB  3001               	movlw	1
  3806     03FC  07D2               	addwf	___fladd@b+3,f
  3807     03FD  2C0C               	goto	l438
  3808     03FE                     l1360:
  3809     03FE  0853               	movf	___fladd@a,w
  3810     03FF  02CF               	subwf	___fladd@b,f
  3811     0400  0854               	movf	___fladd@a+1,w
  3812     0401  1C03               	skipc
  3813     0402  0F54               	incfsz	___fladd@a+1,w
  3814     0403  02D0               	subwf	___fladd@b+1,f
  3815     0404  0855               	movf	___fladd@a+2,w
  3816     0405  1C03               	skipc
  3817     0406  0F55               	incfsz	___fladd@a+2,w
  3818     0407  02D1               	subwf	___fladd@b+2,f
  3819     0408  0856               	movf	___fladd@a+3,w
  3820     0409  1C03               	skipc
  3821     040A  0F56               	incfsz	___fladd@a+3,w
  3822     040B  02D2               	subwf	___fladd@b+3,f
  3823     040C                     l438:
  3824     040C  0852               	movf	___fladd@b+3,w
  3825     040D  0451               	iorwf	___fladd@b+2,w
  3826     040E  0450               	iorwf	___fladd@b+1,w
  3827     040F  044F               	iorwf	___fladd@b,w
  3828     0410  1D03               	skipz
  3829     0411  2C13               	goto	u1801
  3830     0412  2C14               	goto	u1800
  3831     0413                     u1801:
  3832     0413  2C41               	goto	l1382
  3833     0414                     u1800:
  3834     0414                     l1362:
  3835     0414  0862               	movf	___fladd@grs,w
  3836     0415  1D03               	btfss	3,2
  3837     0416  2C18               	goto	u1811
  3838     0417  2C19               	goto	u1810
  3839     0418                     u1811:
  3840     0418  2C41               	goto	l1382
  3841     0419                     u1810:
  3842     0419                     l1364:
  3843     0419  3000               	movlw	0
  3844     041A  00D2               	movwf	?___fladd+3
  3845     041B  3000               	movlw	0
  3846     041C  00D1               	movwf	?___fladd+2
  3847     041D  3000               	movlw	0
  3848     041E  00D0               	movwf	?___fladd+1
  3849     041F  3000               	movlw	0
  3850     0420  00CF               	movwf	?___fladd
  3851     0421  2CB9               	goto	l430
  3852     0422                     l1368:
  3853     0422  3001               	movlw	1
  3854     0423  00D7               	movwf	??___fladd
  3855     0424                     u1825:
  3856     0424  1003               	clrc
  3857     0425  0DCF               	rlf	___fladd@b,f
  3858     0426  0DD0               	rlf	___fladd@b+1,f
  3859     0427  0DD1               	rlf	___fladd@b+2,f
  3860     0428  0DD2               	rlf	___fladd@b+3,f
  3861     0429  0BD7               	decfsz	??___fladd,f
  3862     042A  2C24               	goto	u1825
  3863     042B                     l1370:
  3864     042B  1FE2               	btfss	___fladd@grs,7
  3865     042C  2C2E               	goto	u1831
  3866     042D  2C2F               	goto	u1830
  3867     042E                     u1831:
  3868     042E  2C30               	goto	l442
  3869     042F                     u1830:
  3870     042F                     l1372:
  3871     042F  144F               	bsf	___fladd@b,0
  3872     0430                     l442:
  3873     0430  1C62               	btfss	___fladd@grs,0
  3874     0431  2C33               	goto	u1841
  3875     0432  2C34               	goto	u1840
  3876     0433                     u1841:
  3877     0433  2C38               	goto	l1376
  3878     0434                     u1840:
  3879     0434                     l1374:
  3880     0434  1403               	setc
  3881     0435  0D62               	rlf	___fladd@grs,w
  3882     0436  00E2               	movwf	___fladd@grs
  3883     0437  2C3A               	goto	l1378
  3884     0438                     l1376:
  3885     0438  1003               	clrc
  3886     0439  0DE2               	rlf	___fladd@grs,f
  3887     043A                     l1378:
  3888     043A  0861               	movf	___fladd@bexp,w
  3889     043B  1903               	btfsc	3,2
  3890     043C  2C3E               	goto	u1851
  3891     043D  2C3F               	goto	u1850
  3892     043E                     u1851:
  3893     043E  2C41               	goto	l1382
  3894     043F                     u1850:
  3895     043F                     l1380:
  3896     043F  3001               	movlw	1
  3897     0440  02E1               	subwf	___fladd@bexp,f
  3898     0441                     l1382:
  3899     0441  1FD1               	btfss	___fladd@b+2,7
  3900     0442  2C44               	goto	u1861
  3901     0443  2C45               	goto	u1860
  3902     0444                     u1861:
  3903     0444  2C22               	goto	l1368
  3904     0445                     u1860:
  3905     0445                     l1384:
  3906     0445  01E0               	clrf	___fladd@aexp
  3907     0446                     l1386:
  3908     0446  1FE2               	btfss	___fladd@grs,7
  3909     0447  2C49               	goto	u1871
  3910     0448  2C4A               	goto	u1870
  3911     0449                     u1871:
  3912     0449  2C58               	goto	l1394
  3913     044A                     u1870:
  3914     044A                     l1388:
  3915     044A  0862               	movf	___fladd@grs,w
  3916     044B  397F               	andlw	127
  3917     044C  1903               	btfsc	3,2
  3918     044D  2C4F               	goto	u1881
  3919     044E  2C50               	goto	u1880
  3920     044F                     u1881:
  3921     044F  2C53               	goto	l448
  3922     0450                     u1880:
  3923     0450                     l1390:
  3924     0450  3001               	movlw	1
  3925     0451  00E0               	movwf	___fladd@aexp
  3926     0452  2C58               	goto	l1394
  3927     0453                     l448:
  3928     0453  1C4F               	btfss	___fladd@b,0
  3929     0454  2C56               	goto	u1891
  3930     0455  2C57               	goto	u1890
  3931     0456                     u1891:
  3932     0456  2C58               	goto	l1394
  3933     0457                     u1890:
  3934     0457  2C50               	goto	l1390
  3935     0458                     l1394:
  3936     0458  0860               	movf	___fladd@aexp,w
  3937     0459  1903               	btfsc	3,2
  3938     045A  2C5C               	goto	u1901
  3939     045B  2C5D               	goto	u1900
  3940     045C                     u1901:
  3941     045C  2C8F               	goto	l451
  3942     045D                     u1900:
  3943     045D                     l1396:
  3944     045D  3001               	movlw	1
  3945     045E  07CF               	addwf	___fladd@b,f
  3946     045F  3000               	movlw	0
  3947     0460  1803               	skipnc
  3948     0461  3001               	movlw	1
  3949     0462  07D0               	addwf	___fladd@b+1,f
  3950     0463  3000               	movlw	0
  3951     0464  1803               	skipnc
  3952     0465  3001               	movlw	1
  3953     0466  07D1               	addwf	___fladd@b+2,f
  3954     0467  3000               	movlw	0
  3955     0468  1803               	skipnc
  3956     0469  3001               	movlw	1
  3957     046A  07D2               	addwf	___fladd@b+3,f
  3958     046B                     l1398:
  3959     046B  1C52               	btfss	___fladd@b+3,0
  3960     046C  2C6E               	goto	u1911
  3961     046D  2C6F               	goto	u1910
  3962     046E                     u1911:
  3963     046E  2C8F               	goto	l451
  3964     046F                     u1910:
  3965     046F                     l1400:
  3966     046F  084F               	movf	___fladd@b,w
  3967     0470  00D7               	movwf	??___fladd
  3968     0471  0850               	movf	___fladd@b+1,w
  3969     0472  00D8               	movwf	??___fladd+1
  3970     0473  0851               	movf	___fladd@b+2,w
  3971     0474  00D9               	movwf	??___fladd+2
  3972     0475  0852               	movf	___fladd@b+3,w
  3973     0476  00DA               	movwf	??___fladd+3
  3974     0477  3001               	movlw	1
  3975     0478  00DB               	movwf	??___fladd+4
  3976     0479                     u1925:
  3977     0479  0D5A               	rlf	??___fladd+3,w
  3978     047A  0CDA               	rrf	??___fladd+3,f
  3979     047B  0CD9               	rrf	??___fladd+2,f
  3980     047C  0CD8               	rrf	??___fladd+1,f
  3981     047D  0CD7               	rrf	??___fladd,f
  3982     047E                     u1920:
  3983     047E  0BDB               	decfsz	??___fladd+4,f
  3984     047F  2C79               	goto	u1925
  3985     0480  085A               	movf	??___fladd+3,w
  3986     0481  00D2               	movwf	___fladd@b+3
  3987     0482  0859               	movf	??___fladd+2,w
  3988     0483  00D1               	movwf	___fladd@b+2
  3989     0484  0858               	movf	??___fladd+1,w
  3990     0485  00D0               	movwf	___fladd@b+1
  3991     0486  0857               	movf	??___fladd,w
  3992     0487  00CF               	movwf	___fladd@b
  3993     0488  0A61               	incf	___fladd@bexp,w
  3994     0489  1903               	btfsc	3,2
  3995     048A  2C8C               	goto	u1931
  3996     048B  2C8D               	goto	u1930
  3997     048C                     u1931:
  3998     048C  2C8F               	goto	l451
  3999     048D                     u1930:
  4000     048D                     l1402:
  4001     048D  3001               	movlw	1
  4002     048E  07E1               	addwf	___fladd@bexp,f
  4003     048F                     l451:
  4004     048F  0A61               	incf	___fladd@bexp,w
  4005     0490  1903               	btfsc	3,2
  4006     0491  2C93               	goto	u1941
  4007     0492  2C94               	goto	u1940
  4008     0493                     u1941:
  4009     0493  2C99               	goto	l1406
  4010     0494                     u1940:
  4011     0494                     l1404:
  4012     0494  0861               	movf	___fladd@bexp,w
  4013     0495  1D03               	btfss	3,2
  4014     0496  2C98               	goto	u1951
  4015     0497  2C99               	goto	u1950
  4016     0498                     u1951:
  4017     0498  2CA7               	goto	l1412
  4018     0499                     u1950:
  4019     0499                     l1406:
  4020     0499  3000               	movlw	0
  4021     049A  00D2               	movwf	___fladd@b+3
  4022     049B  3000               	movlw	0
  4023     049C  00D1               	movwf	___fladd@b+2
  4024     049D  3000               	movlw	0
  4025     049E  00D0               	movwf	___fladd@b+1
  4026     049F  3000               	movlw	0
  4027     04A0  00CF               	movwf	___fladd@b
  4028     04A1                     l1408:
  4029     04A1  0861               	movf	___fladd@bexp,w
  4030     04A2  1D03               	btfss	3,2
  4031     04A3  2CA5               	goto	u1961
  4032     04A4  2CA6               	goto	u1960
  4033     04A5                     u1961:
  4034     04A5  2CA7               	goto	l1412
  4035     04A6                     u1960:
  4036     04A6                     l1410:
  4037     04A6  01DF               	clrf	___fladd@signs
  4038     04A7                     l1412:
  4039     04A7  1C61               	btfss	___fladd@bexp,0
  4040     04A8  2CAA               	goto	u1971
  4041     04A9  2CAB               	goto	u1970
  4042     04AA                     u1971:
  4043     04AA  2CAD               	goto	l1416
  4044     04AB                     u1970:
  4045     04AB                     l1414:
  4046     04AB  17D1               	bsf	___fladd@b+2,7
  4047     04AC  2CAF               	goto	l459
  4048     04AD                     l1416:
  4049     04AD  307F               	movlw	127
  4050     04AE  05D1               	andwf	___fladd@b+2,f
  4051     04AF                     l459:
  4052     04AF  0861               	movf	___fladd@bexp,w
  4053     04B0  00D7               	movwf	??___fladd
  4054     04B1  1003               	clrc
  4055     04B2  0C57               	rrf	??___fladd,w
  4056     04B3  00D2               	movwf	___fladd@b+3
  4057     04B4                     l1418:
  4058     04B4  1FDF               	btfss	___fladd@signs,7
  4059     04B5  2CB7               	goto	u1981
  4060     04B6  2CB8               	goto	u1980
  4061     04B7                     u1981:
  4062     04B7  2CB9               	goto	l460
  4063     04B8                     u1980:
  4064     04B8                     l1420:
  4065     04B8  17D2               	bsf	___fladd@b+3,7
  4066     04B9                     l460:
  4067     04B9                     l430:
  4068     04B9  0008               	return
  4069     04BA                     __end_of___fladd:
  4070     0002                     ___latbits      equ	2
  4071     007E                     btemp           set	126	;btemp
  4072     007E                     wtemp0          set	126
  4073                           
  4074                           	psect	config
  4075                           
  4076                           ;Config register CONFIG @ 0x2007
  4077                           ;	Oscillator Selection bits
  4078                           ;	FOSC = HS, HS oscillator
  4079                           ;	Watchdog Timer Enable bit
  4080                           ;	WDTE = OFF, WDT disabled
  4081                           ;	Power-up Timer Enable bit
  4082                           ;	PWRTE = OFF, PWRT disabled
  4083                           ;	Brown-out Reset Enable bit
  4084                           ;	BOREN = OFF, BOR disabled
  4085                           ;	Low-Voltage (Single-Supply) In-Circuit Serial Programming Enable bit
  4086                           ;	LVP = OFF, RB3 is digital I/O, HV on MCLR must be used for programming
  4087                           ;	Data EEPROM Memory Code Protection bit
  4088                           ;	CPD = OFF, Data EEPROM code protection off
  4089                           ;	Flash Program Memory Write Enable bits
  4090                           ;	WRT = OFF, Write protection off; all program memory may be written to by EECON control
  4091                           ;	In-Circuit Debugger Mode bit
  4092                           ;	DEBUG = 0x1, unprogrammed default
  4093                           ;	Flash Program Memory Code Protection bit
  4094                           ;	CP = OFF, Code protection off
  4095     2007                     	org	8199
  4096     2007  3F3A               	dw	16186

Data Sizes:
    Strings     0
    Constant    0
    Data        0
    BSS         0
    Persistent  8
    Stack       0

Auto Spaces:
    Space          Size  Autos    Used
    COMMON           14     14      14
    BANK0            80     79      79
    BANK1            80     12      20
    BANK3            96      0       0
    BANK2            96      0       0

Pointer List with Targets:

    None.

Critical Paths under _main in COMMON

    _set_duty_cycle_percent->___flmul
    _set_duty_cycle_percent->___xxtofl
    _init_pwm->___flmul
    _init_pwm->___xxtofl
    ___fltol->___flmul
    ___flmul->__Umul8_16
    ___fldiv->___flmul
    ___fldiv->___xxtofl
    ___fladd->___flmul

Critical Paths under _main in BANK0

    _main->_init_pwm
    _main->_set_duty_cycle_percent
    _set_duty_cycle_percent->___fltol
    _init_pwm->___fltol
    ___fltol->___fladd
    ___fldiv->___flmul
    ___fladd->___fldiv

Critical Paths under _main in BANK1

    _main->_set_duty_cycle_percent

Critical Paths under _main in BANK3

    None.

Critical Paths under _main in BANK2

    None.

Call Graph Tables:

 ---------------------------------------------------------------------------------
 (Depth) Function   	        Calls       Base Space   Used Autos Params    Refs
 ---------------------------------------------------------------------------------
 (0) _main                                                 0     0      0    8792
                           _init_pwm
             _set_duty_cycle_percent
 ---------------------------------------------------------------------------------
 (1) _set_duty_cycle_percent                              14    12      2    3447
                                             77 BANK0      2     0      2
                                              0 BANK1     12    12      0
                            ___fldiv
                            ___flmul
                            ___fltol
                           ___xxtofl
 ---------------------------------------------------------------------------------
 (1) _init_pwm                                             4     2      2    5345
                                             77 BANK0      2     0      2
                                              0 BANK1      2     2      0
                            ___fladd
                            ___fldiv
                            ___flmul
                            ___fltol
                           ___xxtofl
 ---------------------------------------------------------------------------------
 (2) ___xxtofl                                            14    10      4     338
                                              0 COMMON    14    10      4
 ---------------------------------------------------------------------------------
 (2) ___fltol                                             10     6      4     231
                                             67 BANK0     10     6      4
                            ___fladd (ARG)
                            ___fldiv (ARG)
                            ___flmul (ARG)
 ---------------------------------------------------------------------------------
 (2) ___flmul                                             26    18      8    1612
                                              9 COMMON     5     5      0
                                              0 BANK0     21    13      8
                          __Umul8_16
 ---------------------------------------------------------------------------------
 (3) __Umul8_16                                            9     7      2     139
                                              0 COMMON     9     7      2
 ---------------------------------------------------------------------------------
 (2) ___fldiv                                             26    18      8    1130
                                             21 BANK0     26    18      8
                            ___flmul (ARG)
                           ___xxtofl (ARG)
 ---------------------------------------------------------------------------------
 (2) ___fladd                                             20    12      8    1988
                                             47 BANK0     20    12      8
                            ___fldiv (ARG)
                            ___flmul (ARG)
 ---------------------------------------------------------------------------------
 Estimated maximum stack depth 3
 ---------------------------------------------------------------------------------

 Call Graph Graphs:

 _main (ROOT)
   _init_pwm
     ___fladd
       ___fldiv (ARG)
         ___flmul (ARG)
           __Umul8_16
         ___xxtofl (ARG)
       ___flmul (ARG)
     ___fldiv
     ___flmul
     ___fltol
       ___fladd (ARG)
       ___fldiv (ARG)
       ___flmul (ARG)
     ___xxtofl
   _set_duty_cycle_percent
     ___fldiv
     ___flmul
     ___fltol
     ___xxtofl

Address spaces:
Name               Size   Autos  Total    Usage
BITCOMMON           14      0       0      0.0%
BITBANK0            80      0       0      0.0%
BITBANK1            80      0       0      0.0%
BITBANK3            96      0       0      0.0%
BITBANK2            96      0       0      0.0%
COMMON              14     14      14    100.0%
BANK0               80     79      79     98.8%
BANK1               80     12      20     25.0%
BANK3               96      0       0      0.0%
BANK2               96      0       0      0.0%
STACK                0      0       0      0.0%
DATA                 0      0     113      0.0%


Microchip Technology PIC Macro Assembler V2.50 build 20240725155939 
Symbol Table                                                                                   Thu Nov 14 11:27:09 2024

                    ___fldiv@aexp 004E                      ___fldiv@bexp 004D                      ___fldiv@sign 0046  
                              l22 0FFF                                l19 0EF0                                l27 0D70  
                              l28 0D70               __Umul8_16@word_mpld 0076                               l310 009F  
                             l320 009F                               l412 0296                               l421 0346  
                             l317 008A                               l430 04B9                               l423 0321  
                             l417 02C7                               l513 07FB                               l442 0430  
                             l451 048F                               l460 04B9                               l532 0017  
                             l525 07F1                               l438 040C                               l534 0029  
                             l519 076D                               l448 0453                               l473 00F5  
                             l570 0DF1                               l459 04AF                               l475 0269  
                             l571 0DFD                               l563 0DD5                               l557 0D96  
                             l558 0DA7                               l495 0255                               l559 0E27  
                             l497 0261                               l489 01E3                               _PR2 0092  
 set_duty_cycle_percent@reg_value 00AA                      ___flmul@aexp 002D                      ___flmul@bexp 002E  
                    ___flmul@sign 0028                      ___flmul@temp 0033                      ___flmul@prod 002F  
                    ___fltol@exp1 006C                              l1200 005A                              l1210 0068  
                            l1202 005C                              l1300 02ED                              l1220 008F  
                            l1204 0060                              l1212 0078                              l1310 0325  
                            l1302 02EF                              l1230 0274                              l1222 0094  
                            l1400 046F                              l1320 033C                              l1312 032C  
                            l1304 02F1                              l1240 028B                              l1232 0278  
                            l1224 026A                              l1410 04A6                              l1402 048D  
                            l1330 0358                              l1314 032E                              l1322 033E  
                            l1306 02F2                              l1250 02A0                              l1242 028C  
                            l1234 0279                              l1226 026E                              l1218 007F  
                            l1420 04B8                              l1412 04A7                              l1404 0494  
                            l1340 0380                              l1332 036F                              l1324 034A  
                            l1316 0332                              l1308 0309                              l1260 02AF  
                            l1252 02A1                              l1236 027E                              l1244 028E  
                            l1228 0270                              l1500 0185                              l1180 0011  
                            l1414 04AB                              l1406 0499                              l1350 03A7  
                            l1342 0384                              l1334 0373                              l1326 034F  
                            l1318 0333                              l1270 02CD                              l1262 02B4  
                            l1254 02A5                              l1246 0298                              l1238 0283  
                            l1510 01A4                              l1502 0186                              l1430 00AE  
                            l1422 00A0                              l1182 0020                              l1174 0004  
                            l1190 0035                              l1416 04AD                              l1408 04A1  
                            l1352 03E5                              l1360 03FE                              l1344 0385  
                            l1336 0377                              l1280 02D9                              l1272 02D1  
                            l1264 02BC                              l1256 02A9                              l1248 029A  
                            l1520 01BD                              l1512 01A6                              l1504 0194  
                            l1440 00C2                              l1432 00AF                              l1424 00A4  
                            l1184 0025                              l1176 0006                              l1600 0503  
                            l1418 04B4                              l1370 042B                              l1362 0414  
                            l1354 03E7                              l1346 038E                              l1338 037E  
                            l1290 02E3                              l1282 02DB                              l1274 02D3  
                            l1266 02BD                              l1258 02AA                              l1530 01E0  
                            l1514 01AF                              l1522 01C3                              l1506 0196  
                            l1450 00D7                              l1434 00B4                              l1442 00C4  
                            l1426 00A6                              l1178 000D                              l1602 0505  
                            l1194 003E                              l1380 043F                              l1372 042F  
                            l1364 0419                              l1356 03EA                              l1348 0391  
                            l1292 02E5                              l1284 02DD                              l1276 02D5  
                            l1268 02BF                              l1540 01FF                              l1524 01C7  
                            l1516 01B3                              l1508 019C                              l1460 00EB  
                            l1452 00D8                              l1444 00CC                              l1436 00B9  
                            l1428 00AA                              l1700 07EB                              l1620 0572  
                            l1612 0520                              l1604 050D                              l1196 0051  
                            l1188 002A                              l1390 0450                              l1374 0434  
                            l1382 0441                              l1358 03EF                              l1294 02E7  
                            l1286 02DF                              l1278 02D7                              l1550 0248  
                            l1542 0218                              l1534 01E8                              l1526 01C8  
                            l1518 01B4                              l1454 00DD                              l1462 00ED  
                            l1446 00CF                              l1438 00C1                              l1702 07EC  
                            l1630 05EB                              l1622 059C                              l1614 052E  
                            l1606 0512                              l1198 0052                              l1710 0D7A  
                            l1376 0438                              l1368 0422                              l1384 0445  
                            l1296 02E9                              l1288 02E1                              l1560 025F  
                            l1552 024C                              l1536 01ED                              l1544 021E  
                            l1528 01CC                              l1480 0134                              l1464 00FD  
                            l1472 0114                              l1456 00E2                              l1448 00D3  
                            l1704 07F3                              l1640 0667                              l1632 0608  
                            l1624 05B8                              l1616 053B                              l1608 0517  
                            l1720 0DAA                              l1712 0D7E                              l1394 0458  
                            l1386 0446                              l1378 043A                              l1298 02EB  
                            l1554 0254                              l1546 022B                              l1538 01FB  
                            l1490 0153                              l1482 013C                              l1474 0119  
                            l1466 0109                              l1458 00EA                              l1650 0719  
                            l1642 0692                              l1634 0616                              l1626 05D4  
                            l1618 0556                              l1570 04C0                              l1730 0DDC  
                            l1722 0DB5                              l1714 0D8E                              l1396 045D  
                            l1388 044A                              l1556 0259                              l1548 0239  
                            l1492 0165                              l1484 0144                              l1468 010B  
                            l1660 073E                              l1652 0722                              l1644 06A0  
                            l1636 0633                              l1628 05DD                              l1580 04D3  
                            l1572 04C4                              l1740 0E15                              l1732 0DE7  
                            l1724 0DBC                              l1716 0D9E                              l1708 0D75  
                            l1398 046B                              l1558 025D                              l1494 0169  
                            l1486 014C                              l1478 0122                              l1670 0756  
                            l1662 0747                              l1654 0730                              l1646 06CB  
                            l1638 064A                              l1590 04EC                              l1582 04DB  
                            l1574 04C8                              l1566 04BA                              l1742 0E1A  
                            l1734 0DEB                              l1726 0DBE                              l1750 0E28  
                            l1496 016A                              l1488 014E                              l1680 0785  
                            l1672 076A                              l1656 0739                              l1664 074D  
                            l1648 06F1                              l1592 04F0                              l1584 04DD  
                            l1576 04C9                              l1568 04BE                              l1744 0E1E  
                            l1736 0DF5                              l1728 0DCC                              l1760 0EEE  
                            l1752 0E2C                              l1498 0173                              l1690 07C0  
                            l1682 0789                              l1666 0751                              l1658 073D  
                            l1594 04F1                              l1586 04E5                              l1578 04CE  
                            l1746 0E1F                              l1738 0DFF                              l1754 0E31  
                            l1762 0EF1                              l1770 0D57                              l1692 07CF  
                            l1684 07A2                              l1676 0772                              l1668 0752  
                            l1596 04F6                              l1588 04E8                              l1756 0E47  
                            l1764 0FCE                              l1772 0D5A                              l1694 07D9  
                            l1678 0777                              l1686 07A8                              l1598 04FB  
                            l1758 0E82                              l1766 0FDC                              l1696 07DB  
                            l1688 07B5                              l1768 0FEE                              l1698 07E7  
                            u2000 00B4                              u2001 00B3                              u2010 00B9  
                            u2011 00B8                              u2100 0169                              u2020 00D7  
                            u2101 0168                              u2021 00D6                              u2030 00DD  
                            u2031 00DC                              u2200 01E0                              u2120 0185  
                            u2040 00E2                              u1400 0011                              u2201 01DF  
                            u2121 0184                              u2041 00E1                              u1401 0010  
                            u2210 01E7                              u2130 019C                              u2050 00FD  
                            u2211 01E6                              u2131 019B                              u2115 016C  
                            u2051 00FC                              u2220 01ED                              u2140 01A4  
                            u2060 0119                              u1420 0025                              u2300 04D3  
                            u2221 01EC                              u2141 01A3                              u2125 0181  
                            u2061 0118                              u1421 0024                              u2301 04D2  
                            u2230 01FF                              u2070 0153                              u2310 04F0  
                            u1510 008F                              u1430 0035                              u2231 01FE  
                            u2071 0152                              u1415 0018                              u2311 04EF  
                            u1511 008E                              u1431 0034                              u1600 02CD  
                            u2240 020E                              u2160 01B3                              u2320 04F6  
                            u1520 0094                              u1440 004C                              u1601 02CC  
                            u2161 01B2                              u2321 04F5                              u1521 0093  
                            u1505 0081                              u1610 02D1                              u1530 0278  
                            u2250 022B                              u2330 04FB                              u1450 0060  
                            u1611 02D0                              u1531 0277                              u2251 022A  
                            u2155 01A8                              u2411 05FA                              u2331 04FA  
                            u1451 005F                              u1700 034F                              u1620 0309  
                            u1540 027E                              u2260 0248                              u2180 01C7  
                            u2412 0601                              u2340 0512                              u1460 0067  
                            u1701 034E                              u1621 0308                              u1541 027D  
                            u2261 0247                              u2245 0209                              u2181 01C6  
                            u2085 0155                              u2501 070B                              u2421 0625  
                            u2413 0608                              u2405 05D6                              u2341 0511  
                            u1461 0066                              u1445 0047                              u1630 0314  
                            u1550 0283                              u2270 025D                              u2190 01CC  
                            u2502 0712                              u2422 062C                              u2350 0517  
                            u1711 0361                              u1631 0312                              u1551 0282  
                            u2271 025C                              u2255 0227                              u2191 01CB  
                            u2175 01B6                              u2095 015E                              u2503 0719  
                            u2423 0633                              u2351 0516                              u1800 0414  
                            u1720 0373                              u1712 0368                              u1640 0315  
                            u1560 02A0                              u2600 0789                              u2280 04C8  
                            u1480 0077                              u1801 0413                              u1721 0372  
                            u1713 036F                              u1625 0305                              u1561 029F  
                            u2265 0244                              u2601 0788                              u2441 0659  
                            u2361 0564                              u2281 04C7                              u1481 0076  
                            u1810 0419                              u1730 0377                              u1650 0325  
                            u1570 02A9                              u2610 0798                              u2530 073D  
                            u2442 0660                              u2362 056B                              u2290 04CE  
                            u1490 007E                              u1811 0418                              u1731 0376  
                            u1651 0324                              u1571 02A8                              u2531 073C  
                            u2515 071B                              u2451 0684                              u2443 0667  
                            u2435 0635                              u2371 0580                              u2363 0572  
                            u2291 04CD                              u1491 007D                              u1475 0069  
                            u1900 045D                              u1740 0384                              u1660 0332  
                            u1580 02AF                              u2620 07B5                              u2452 068B  
                            u2372 0587                              u1901 045C                              u1741 0383  
                            u1661 0331                              u1581 02AE                              u2621 07B4  
                            u2525 0732                              u2461 06AF                              u2453 0692  
                            u2381 05AA                              u2373 058E                              u1910 046F  
                            u1830 042F                              u1590 02B4                              u2630 07CF  
                            u2550 0751                              u2470 06D7                              u2462 06B6  
                            u2382 05B1                              u2710 0DDB                              u1911 046E  
                            u1831 042E                              u1591 02B3                              u2631 07CE  
                            u2615 0793                              u2551 0750                              u2463 06BD  
                            u2391 05C6                              u2383 05B8                              u2711 0DDA  
                            u1920 047E                              u1840 0434                              u1760 03A7  
                            u1680 0346                              u2640 07EB                              u2560 0756  
                            u2392 05CD                              u1841 0433                              u1825 0424  
                            u1761 03A6                              u1681 0345                              u2641 07EA  
                            u2625 07B1                              u2561 0755                              u2545 0740  
                            u2481 06E3                              u2393 05D4                              u2705 0DCD  
                            u1930 048D                              u1850 043F                              u1690 034A  
                            u2570 076A                              u2490 06FF                              u2482 06EA  
                            u2730 0DEB                              u2650 0D7A                              u1931 048C  
                            u1851 043E                              u1771 03BE                              u1763 03A3  
                            u1755 0387                              u1691 0349                              u1675 0335  
                            u2635 07CB                              u2571 0769                              u2483 06F1  
                            u2475 06D2                              u2731 0DEA                              u2651 0D79  
                            u1940 0494                              u1860 0445                              u1780 03D2  
                            u1772 03BF                              u2580 0771                              u2740 0DF1  
                            u2660 0D7E                              u1941 0493                              u1925 0479  
                            u1861 0444                              u1781 03D3                              u1773 03C4  
                            u2581 0770                              u2741 0DF0                              u2725 0DE0  
                            u2661 0D7D                              u1950 0499                              u1870 044A  
                            u1790 03EF                              u1782 03D8                              u1774 03C5  
                            u2590 0777                              u2750 0DF5                              u2670 0D9E  
                            u1951 0498                              u1871 0449                              u1791 03EE  
                            u1783 03D9                              u1775 03CA                              u2591 0776  
                            u2495 06FA                              u2751 0DF4                              u2671 0D9D  
                            u1960 04A6                              u1880 0450                              u1776 03CB  
                            u2760 0E0A                              u1961 04A5                              u1881 044F  
                            u1970 04AB                              u1890 0457                              u2770 0E1A  
                            u2690 0DBB                              u1971 04AA                              u1891 0456  
                            u2771 0E19                              u2691 0DBA                              u1980 04B8  
                            u2780 0E1E                              u1981 04B7                              u2781 0E1D  
                            u2765 0E05                              u2685 0DAD                              u1990 00AE  
                            u1991 00AD                              _main 0D57                              btemp 007E  
                            start 0000                   ___fldiv@new_exp 0047                     ___fltol@sign1 006B  
                 __end_of___fladd 04BA                             ?_main 0070                   __end_of___fldiv 026A  
                 __end_of___flmul 07FC                   __end_of___fltol 00A0                             status 0003  
                           wtemp0 007E                   __initialization 07FC                      __end_of_main 0D74  
                          ??_main 007E                            _CCPR1L 0015                            _TMR2ON 0092  
                          _TRISC2 043A                  __end_of___xxtofl 0E28                         ??___fladd 0057  
                       ??___fldiv 003D                         ??___flmul 0079                         ??___fltol 0067  
                __end_of_init_pwm 0EF1                      ___xxtofl@arg 007A                      ___xxtofl@exp 0079  
                    ___xxtofl@val 0070           __end_of__initialization 07FC                        ___fltol@f1 0063  
                  __pcstackCOMMON 0070          ??_set_duty_cycle_percent 00A0                 __end_of__Umul8_16 002A  
                      __pmaintext 0D57                         ?___xxtofl 0070                         ?_init_pwm 006D  
                         ___fladd 026A                           ___fldiv 00A0                           ___flmul 04BA  
                         ___fltol 002A                           __ptext1 0EF1                           __ptext2 0E28  
                         __ptext3 0D74                           __ptext4 002A                           __ptext5 04BA  
                         __ptext6 0003                           __ptext7 00A0                           __ptext8 026A  
                       _T2CONbits 0012                        ??___xxtofl 0074              end_of_initialization 07FC  
                      ??_init_pwm 007E                       ___fladd@grs 0062                     ___xxtofl@sign 0078  
                     ___fldiv@grs 0049                       ___fldiv@rem 0042          set_duty_cycle_percent@dc 00A2  
               init_pwm@PR2_value 00A0                       ___flmul@grs 0029                       _CCP1CONbits 0017  
          _set_duty_cycle_percent 0EF1               start_initialization 07FC                         __Umul8_16 0003  
                       ___fladd@a 0053                         ___fladd@b 004F                         ___fldiv@a 0035  
                       ___fldiv@b 0039                         ___flmul@a 0024                         ___flmul@b 0020  
                       ___latbits 0002                     __pcstackBANK0 0020                     __pcstackBANK1 00A0  
set_duty_cycle_percent@duty_cycle 006D                         __pnvBANK1 00AC                          ?___fladd 004F  
                        ?___fldiv 0035                          ?___flmul 0020                          ?___fltol 0063  
                      ?__Umul8_16 0070                          _PWM_FREQ 00B0           ?_set_duty_cycle_percent 006D  
                       init_pwm@f 006D                       ??__Umul8_16 0072                          ___xxtofl 0D74  
                        _init_pwm 0E28    __end_of_set_duty_cycle_percent 1000            __Umul8_16@multiplicand 0070  
 set_duty_cycle_percent@dc_period 00A6                     ___fladd@signs 005F                      ___fladd@aexp 0060  
                    ___fladd@bexp 0061              __Umul8_16@multiplier 0078                        _PWM_PERIOD 00AC  
               __Umul8_16@product 0074  
